; Listing generated by Microsoft (R) Optimizing Compiler Version 16.00.40219.01 

	TITLE	D:\project\vendor\WMS\ABS\src\jsoncpp-src-0.5.0.tar\jsoncpp-src-0.5.0\src\lib_json\json_reader.cpp
	.686P
	.XMM
	include listing.inc
	.model	flat


PUBLIC	??_R4failure@ios_base@std@@6B@			; std::ios_base::failure::`RTTI Complete Object Locator'
PUBLIC	??_R3failure@ios_base@std@@8			; std::ios_base::failure::`RTTI Class Hierarchy Descriptor'
PUBLIC	??_R2failure@ios_base@std@@8			; std::ios_base::failure::`RTTI Base Class Array'
PUBLIC	??_R1A@?0A@EA@failure@ios_base@std@@8		; std::ios_base::failure::`RTTI Base Class Descriptor at (0,-1,0,64)'
PUBLIC	??_R4system_error@std@@6B@			; std::system_error::`RTTI Complete Object Locator'
PUBLIC	??_R3system_error@std@@8			; std::system_error::`RTTI Class Hierarchy Descriptor'
PUBLIC	??_R2system_error@std@@8			; std::system_error::`RTTI Base Class Array'
PUBLIC	??_R1A@?0A@EA@system_error@std@@8		; std::system_error::`RTTI Base Class Descriptor at (0,-1,0,64)'
PUBLIC	??_R4?$ctype@D@std@@6B@				; std::ctype<char>::`RTTI Complete Object Locator'
PUBLIC	??_R3?$ctype@D@std@@8				; std::ctype<char>::`RTTI Class Hierarchy Descriptor'
PUBLIC	??_R2?$ctype@D@std@@8				; std::ctype<char>::`RTTI Base Class Array'
PUBLIC	??_R1A@?0A@EA@?$ctype@D@std@@8			; std::ctype<char>::`RTTI Base Class Descriptor at (0,-1,0,64)'
PUBLIC	??_R0?AV?$ctype@D@std@@@8			; std::ctype<char> `RTTI Type Descriptor'
PUBLIC	??_R4ctype_base@std@@6B@			; std::ctype_base::`RTTI Complete Object Locator'
PUBLIC	??_R3ctype_base@std@@8				; std::ctype_base::`RTTI Class Hierarchy Descriptor'
PUBLIC	??_R2ctype_base@std@@8				; std::ctype_base::`RTTI Base Class Array'
PUBLIC	??_R1A@?0A@EA@ctype_base@std@@8			; std::ctype_base::`RTTI Base Class Descriptor at (0,-1,0,64)'
PUBLIC	??_R0?AUctype_base@std@@@8			; std::ctype_base `RTTI Type Descriptor'
PUBLIC	??_R4facet@locale@std@@6B@			; std::locale::facet::`RTTI Complete Object Locator'
PUBLIC	??_R3facet@locale@std@@8			; std::locale::facet::`RTTI Class Hierarchy Descriptor'
PUBLIC	??_R2facet@locale@std@@8			; std::locale::facet::`RTTI Base Class Array'
PUBLIC	??_R1A@?0A@EA@facet@locale@std@@8		; std::locale::facet::`RTTI Base Class Descriptor at (0,-1,0,64)'
PUBLIC	??_R0?AVfacet@locale@std@@@8			; std::locale::facet `RTTI Type Descriptor'
PUBLIC	??_R4runtime_error@std@@6B@			; std::runtime_error::`RTTI Complete Object Locator'
PUBLIC	??_R3runtime_error@std@@8			; std::runtime_error::`RTTI Class Hierarchy Descriptor'
PUBLIC	??_R2runtime_error@std@@8			; std::runtime_error::`RTTI Base Class Array'
PUBLIC	??_R1A@?0A@EA@runtime_error@std@@8		; std::runtime_error::`RTTI Base Class Descriptor at (0,-1,0,64)'
PUBLIC	??_R4bad_alloc@std@@6B@				; std::bad_alloc::`RTTI Complete Object Locator'
PUBLIC	??_R3bad_alloc@std@@8				; std::bad_alloc::`RTTI Class Hierarchy Descriptor'
PUBLIC	??_R2bad_alloc@std@@8				; std::bad_alloc::`RTTI Base Class Array'
PUBLIC	??_R1A@?0A@EA@exception@std@@8			; std::exception::`RTTI Base Class Descriptor at (0,-1,0,64)'
PUBLIC	??_R3exception@std@@8				; std::exception::`RTTI Class Hierarchy Descriptor'
PUBLIC	??_R2exception@std@@8				; std::exception::`RTTI Base Class Array'
PUBLIC	??_R1A@?0A@EA@bad_alloc@std@@8			; std::bad_alloc::`RTTI Base Class Descriptor at (0,-1,0,64)'
PUBLIC	??0?$allocator@PAVValue@Json@@@std@@QAE@XZ	; std::allocator<Json::Value *>::allocator<Json::Value *>
PUBLIC	??0?$allocator@PAVValue@Json@@@std@@QAE@ABV01@@Z ; std::allocator<Json::Value *>::allocator<Json::Value *>
PUBLIC	??$?0PAVValue@Json@@@?$allocator@PAPAVValue@Json@@@std@@QAE@ABV?$allocator@PAVValue@Json@@@1@@Z ; std::allocator<Json::Value * *>::allocator<Json::Value * *><Json::Value *>
PUBLIC	??0?$_Deque_val@PAVValue@Json@@V?$allocator@PAVValue@Json@@@std@@@std@@QAE@V?$allocator@PAVValue@Json@@@1@@Z ; std::_Deque_val<Json::Value *,std::allocator<Json::Value *> >::_Deque_val<Json::Value *,std::allocator<Json::Value *> >
PUBLIC	??0?$deque@PAVValue@Json@@V?$allocator@PAVValue@Json@@@std@@@std@@QAE@XZ ; std::deque<Json::Value *,std::allocator<Json::Value *> >::deque<Json::Value *,std::allocator<Json::Value *> >
PUBLIC	??0?$stack@PAVValue@Json@@V?$deque@PAVValue@Json@@V?$allocator@PAVValue@Json@@@std@@@std@@@std@@QAE@XZ ; std::stack<Json::Value *,std::deque<Json::Value *,std::allocator<Json::Value *> > >::stack<Json::Value *,std::deque<Json::Value *,std::allocator<Json::Value *> > >
PUBLIC	??0?$allocator@VErrorInfo@Reader@Json@@@std@@QAE@XZ ; std::allocator<Json::Reader::ErrorInfo>::allocator<Json::Reader::ErrorInfo>
PUBLIC	??0_Container_proxy@std@@QAE@XZ			; std::_Container_proxy::_Container_proxy
PUBLIC	??0_Container_base12@std@@QAE@XZ		; std::_Container_base12::_Container_base12
PUBLIC	??0?$allocator@VErrorInfo@Reader@Json@@@std@@QAE@ABV01@@Z ; std::allocator<Json::Reader::ErrorInfo>::allocator<Json::Reader::ErrorInfo>
PUBLIC	??$_Allocate@U_Container_proxy@std@@@std@@YAPAU_Container_proxy@0@IPAU10@@Z ; std::_Allocate<std::_Container_proxy>
PUBLIC	?allocate@?$allocator@U_Container_proxy@std@@@std@@QAEPAU_Container_proxy@2@I@Z ; std::allocator<std::_Container_proxy>::allocate
PUBLIC	??$?0VErrorInfo@Reader@Json@@@?$allocator@PAVErrorInfo@Reader@Json@@@std@@QAE@ABV?$allocator@VErrorInfo@Reader@Json@@@1@@Z ; std::allocator<Json::Reader::ErrorInfo *>::allocator<Json::Reader::ErrorInfo *><Json::Reader::ErrorInfo>
PUBLIC	?construct@?$allocator@U_Container_proxy@std@@@std@@QAEXPAU_Container_proxy@2@$$QAU32@@Z ; std::allocator<std::_Container_proxy>::construct
PUBLIC	??$forward@U_Container_proxy@std@@@std@@YA$$QAU_Container_proxy@0@AAU10@@Z ; std::forward<std::_Container_proxy>
PUBLIC	??$_Cons_val@V?$allocator@U_Container_proxy@std@@@std@@U_Container_proxy@2@U32@@std@@YAXAAV?$allocator@U_Container_proxy@std@@@0@PAU_Container_proxy@0@$$QAU20@@Z ; std::_Cons_val<std::allocator<std::_Container_proxy>,std::_Container_proxy,std::_Container_proxy>
PUBLIC	??0?$_Deque_val@VErrorInfo@Reader@Json@@V?$allocator@VErrorInfo@Reader@Json@@@std@@@std@@QAE@V?$allocator@VErrorInfo@Reader@Json@@@1@@Z ; std::_Deque_val<Json::Reader::ErrorInfo,std::allocator<Json::Reader::ErrorInfo> >::_Deque_val<Json::Reader::ErrorInfo,std::allocator<Json::Reader::ErrorInfo> >
PUBLIC	??0?$deque@VErrorInfo@Reader@Json@@V?$allocator@VErrorInfo@Reader@Json@@@std@@@std@@QAE@XZ ; std::deque<Json::Reader::ErrorInfo,std::allocator<Json::Reader::ErrorInfo> >::deque<Json::Reader::ErrorInfo,std::allocator<Json::Reader::ErrorInfo> >
PUBLIC	?length@?$basic_string@DU?$char_traits@D@std@@V?$allocator@D@2@@std@@QBEIXZ ; std::basic_string<char,std::char_traits<char>,std::allocator<char> >::length
PUBLIC	?to_char_type@?$char_traits@D@std@@SADABH@Z	; std::char_traits<char>::to_char_type
PUBLIC	?is@?$ctype@D@std@@QBE_NFD@Z			; std::ctype<char>::is
PUBLIC	??Bid@locale@std@@QAEIXZ			; std::locale::id::operator unsigned int
PUBLIC	?_Register@facet@locale@std@@QAEXXZ		; std::locale::facet::_Register
PUBLIC	?_Getfacet@locale@std@@QBEPBVfacet@12@I@Z	; std::locale::_Getfacet
PUBLIC	??0?$_Yarn@D@std@@QAE@XZ			; std::_Yarn<char>::_Yarn<char>
PUBLIC	??0_Locinfo@std@@QAE@PBD@Z			; std::_Locinfo::_Locinfo
PUBLIC	?_Tidy@?$_Yarn@D@std@@AAEXXZ			; std::_Yarn<char>::_Tidy
PUBLIC	??1?$_Yarn@D@std@@QAE@XZ			; std::_Yarn<char>::~_Yarn<char>
PUBLIC	??1_Locinfo@std@@QAE@XZ				; std::_Locinfo::~_Locinfo
PUBLIC	?c_str@?$_Yarn@D@std@@QBEPBDXZ			; std::_Yarn<char>::c_str
PUBLIC	?c_str@locale@std@@QBEPBDXZ			; std::locale::c_str
PUBLIC	??0facet@locale@std@@IAE@I@Z			; std::locale::facet::facet
PUBLIC	??0ctype_base@std@@QAE@I@Z			; std::ctype_base::ctype_base
PUBLIC	?_Getctype@_Locinfo@std@@QBE?AU_Ctypevec@@XZ	; std::_Locinfo::_Getctype
PUBLIC	?_Init@?$ctype@D@std@@IAEXABV_Locinfo@2@@Z	; std::ctype<char>::_Init
PUBLIC	?do_tolower@?$ctype@D@std@@MBEDD@Z		; std::ctype<char>::do_tolower
PUBLIC	?do_tolower@?$ctype@D@std@@MBEPBDPADPBD@Z	; std::ctype<char>::do_tolower
PUBLIC	?do_toupper@?$ctype@D@std@@MBEDD@Z		; std::ctype<char>::do_toupper
PUBLIC	?do_toupper@?$ctype@D@std@@MBEPBDPADPBD@Z	; std::ctype<char>::do_toupper
PUBLIC	?do_widen@?$ctype@D@std@@MBEDD@Z		; std::ctype<char>::do_widen
PUBLIC	?do_widen@?$ctype@D@std@@MBEPBDPBD0PAD@Z	; std::ctype<char>::do_widen
PUBLIC	?do_narrow@?$ctype@D@std@@MBEDDD@Z		; std::ctype<char>::do_narrow
PUBLIC	?do_narrow@?$ctype@D@std@@MBEPBDPBD0DPAD@Z	; std::ctype<char>::do_narrow
PUBLIC	??_Gfacet@locale@std@@UAEPAXI@Z			; std::locale::facet::`scalar deleting destructor'
PUBLIC	??1facet@locale@std@@UAE@XZ			; std::locale::facet::~facet
PUBLIC	??_Gctype_base@std@@UAEPAXI@Z			; std::ctype_base::`scalar deleting destructor'
PUBLIC	??1ctype_base@std@@UAE@XZ			; std::ctype_base::~ctype_base
PUBLIC	?_Tidy@?$ctype@D@std@@IAEXXZ			; std::ctype<char>::_Tidy
PUBLIC	??1?$ctype@D@std@@MAE@XZ			; std::ctype<char>::~ctype<char>
PUBLIC	??_G?$ctype@D@std@@MAEPAXI@Z			; std::ctype<char>::`scalar deleting destructor'
PUBLIC	??0?$ctype@D@std@@QAE@ABV_Locinfo@1@I@Z		; std::ctype<char>::ctype<char>
PUBLIC	?_Getcat@?$ctype@D@std@@SAIPAPBVfacet@locale@2@PBV42@@Z ; std::ctype<char>::_Getcat
PUBLIC	??$use_facet@V?$ctype@D@std@@@std@@YAABV?$ctype@D@0@ABVlocale@0@@Z ; std::use_facet<std::ctype<char> >
PUBLIC	?good@ios_base@std@@QBE_NXZ			; std::ios_base::good
PUBLIC	?flags@ios_base@std@@QBEHXZ			; std::ios_base::flags
PUBLIC	?_Incref@facet@locale@std@@QAEXXZ		; std::locale::facet::_Incref
PUBLIC	??0locale@std@@QAE@ABV01@@Z			; std::locale::locale
PUBLIC	?_Decref@facet@locale@std@@QAEPAV123@XZ		; std::locale::facet::_Decref
PUBLIC	??1locale@std@@QAE@XZ				; std::locale::~locale
PUBLIC	?getloc@ios_base@std@@QBE?AVlocale@2@XZ		; std::ios_base::getloc
PUBLIC	?tie@?$basic_ios@DU?$char_traits@D@std@@@std@@QBEPAV?$basic_ostream@DU?$char_traits@D@std@@@2@XZ ; std::basic_ios<char,std::char_traits<char> >::tie
PUBLIC	?fail@ios_base@std@@QBE_NXZ			; std::ios_base::fail
PUBLIC	?rdstate@ios_base@std@@QBEHXZ			; std::ios_base::rdstate
PUBLIC	??0error_code@std@@QAE@HABVerror_category@1@@Z	; std::error_code::error_code
PUBLIC	?make_error_code@std@@YA?AVerror_code@1@W4io_errc@31@@Z ; std::make_error_code
PUBLIC	??0runtime_error@std@@QAE@PBD@Z			; std::runtime_error::runtime_error
PUBLIC	?_Makestr@system_error@std@@AAEXXZ		; std::system_error::_Makestr
PUBLIC	??0system_error@std@@QAE@Verror_code@1@PBD@Z	; std::system_error::system_error
PUBLIC	??0failure@ios_base@std@@QAE@PBDABVerror_code@2@@Z ; std::ios_base::failure::failure
PUBLIC	??1failure@ios_base@std@@UAE@XZ			; std::ios_base::failure::~failure
PUBLIC	??_Gfailure@ios_base@std@@UAEPAXI@Z		; std::ios_base::failure::`scalar deleting destructor'
PUBLIC	??0failure@ios_base@std@@QAE@ABV012@@Z		; std::ios_base::failure::failure
PUBLIC	??1system_error@std@@UAE@XZ			; std::system_error::~system_error
PUBLIC	??_Gsystem_error@std@@UAEPAXI@Z			; std::system_error::`scalar deleting destructor'
PUBLIC	??0system_error@std@@QAE@ABV01@@Z		; std::system_error::system_error
PUBLIC	?clear@ios_base@std@@QAEXH_N@Z			; std::ios_base::clear
PUBLIC	?clear@?$basic_ios@DU?$char_traits@D@std@@@std@@QAEXH_N@Z ; std::basic_ios<char,std::char_traits<char> >::clear
PUBLIC	?setstate@?$basic_ios@DU?$char_traits@D@std@@@std@@QAEXH_N@Z ; std::basic_ios<char,std::char_traits<char> >::setstate
PUBLIC	?pubsync@?$basic_streambuf@DU?$char_traits@D@std@@@std@@QAEHXZ ; std::basic_streambuf<char,std::char_traits<char> >::pubsync
PUBLIC	?flush@?$basic_ostream@DU?$char_traits@D@std@@@std@@QAEAAV12@XZ ; std::basic_ostream<char,std::char_traits<char> >::flush
PUBLIC	?_Ipfx@?$basic_istream@DU?$char_traits@D@std@@@std@@QAE_N_N@Z ; std::basic_istream<char,std::char_traits<char> >::_Ipfx
PUBLIC	??0_Sentry_base@?$basic_istream@DU?$char_traits@D@std@@@std@@QAE@AAV12@@Z ; std::basic_istream<char,std::char_traits<char> >::_Sentry_base::_Sentry_base
PUBLIC	??0sentry@?$basic_istream@DU?$char_traits@D@std@@@std@@QAE@AAV12@_N@Z ; std::basic_istream<char,std::char_traits<char> >::sentry::sentry
PUBLIC	??Bsentry@?$basic_istream@DU?$char_traits@D@std@@@std@@QBEPQ_Bool_struct@2@HXZ ; std::basic_istream<char,std::char_traits<char> >::sentry::operator int std::_Bool_struct::*
PUBLIC	?rdbuf@?$basic_ios@DU?$char_traits@D@std@@@std@@QBEPAV?$basic_streambuf@DU?$char_traits@D@std@@@2@XZ ; std::basic_ios<char,std::char_traits<char> >::rdbuf
PUBLIC	??1_Sentry_base@?$basic_istream@DU?$char_traits@D@std@@@std@@QAE@XZ ; std::basic_istream<char,std::char_traits<char> >::_Sentry_base::~_Sentry_base
PUBLIC	??1sentry@?$basic_istream@DU?$char_traits@D@std@@@std@@QAE@XZ ; std::basic_istream<char,std::char_traits<char> >::sentry::~sentry
PUBLIC	?eq_int_type@?$char_traits@D@std@@SA_NABH0@Z	; std::char_traits<char>::eq_int_type
PUBLIC	?eof@?$char_traits@D@std@@SAHXZ			; std::char_traits<char>::eof
PUBLIC	?_Gninc@?$basic_streambuf@DU?$char_traits@D@std@@@std@@IAEPADXZ ; std::basic_streambuf<char,std::char_traits<char> >::_Gninc
PUBLIC	?sbumpc@?$basic_streambuf@DU?$char_traits@D@std@@@std@@QAEHXZ ; std::basic_streambuf<char,std::char_traits<char> >::sbumpc
PUBLIC	?to_int_type@?$char_traits@D@std@@SAHABD@Z	; std::char_traits<char>::to_int_type
PUBLIC	?gptr@?$basic_streambuf@DU?$char_traits@D@std@@@std@@IBEPADXZ ; std::basic_streambuf<char,std::char_traits<char> >::gptr
PUBLIC	?sgetc@?$basic_streambuf@DU?$char_traits@D@std@@@std@@QAEHXZ ; std::basic_streambuf<char,std::char_traits<char> >::sgetc
PUBLIC	?_Gnpreinc@?$basic_streambuf@DU?$char_traits@D@std@@@std@@IAEPADXZ ; std::basic_streambuf<char,std::char_traits<char> >::_Gnpreinc
PUBLIC	?_Gnavail@?$basic_streambuf@DU?$char_traits@D@std@@@std@@IBE_JXZ ; std::basic_streambuf<char,std::char_traits<char> >::_Gnavail
PUBLIC	?snextc@?$basic_streambuf@DU?$char_traits@D@std@@@std@@QAEHXZ ; std::basic_streambuf<char,std::char_traits<char> >::snextc
PUBLIC	??$getline@DU?$char_traits@D@std@@V?$allocator@D@2@@std@@YAAAV?$basic_istream@DU?$char_traits@D@std@@@0@$$QAV10@AAV?$basic_string@DU?$char_traits@D@std@@V?$allocator@D@2@@0@D@Z ; std::getline<char,std::char_traits<char>,std::allocator<char> >
PUBLIC	??$move@AAV?$basic_istream@DU?$char_traits@D@std@@@std@@@std@@YA$$QAV?$basic_istream@DU?$char_traits@D@std@@@0@AAV10@@Z ; std::move<std::basic_istream<char,std::char_traits<char> > &>
PUBLIC	??$getline@DU?$char_traits@D@std@@V?$allocator@D@2@@std@@YAAAV?$basic_istream@DU?$char_traits@D@std@@@0@AAV10@AAV?$basic_string@DU?$char_traits@D@std@@V?$allocator@D@2@@0@D@Z ; std::getline<char,std::char_traits<char>,std::allocator<char> >
PUBLIC	?empty@?$stack@PAVValue@Json@@V?$deque@PAVValue@Json@@V?$allocator@PAVValue@Json@@@std@@@std@@@std@@QBE_NXZ ; std::stack<Json::Value *,std::deque<Json::Value *,std::allocator<Json::Value *> > >::empty
PUBLIC	?clear@?$deque@VErrorInfo@Reader@Json@@V?$allocator@VErrorInfo@Reader@Json@@@std@@@std@@QAEXXZ ; std::deque<Json::Reader::ErrorInfo,std::allocator<Json::Reader::ErrorInfo> >::clear
PUBLIC	??4?$basic_string@DU?$char_traits@D@std@@V?$allocator@D@2@@std@@QAEAAV01@PBD@Z ; std::basic_string<char,std::char_traits<char>,std::allocator<char> >::operator=
PUBLIC	?empty@?$basic_string@DU?$char_traits@D@std@@V?$allocator@D@2@@std@@QBE_NXZ ; std::basic_string<char,std::char_traits<char>,std::allocator<char> >::empty
PUBLIC	??$_Allocate@PAVValue@Json@@@std@@YAPAPAVValue@Json@@IPAPAV12@@Z ; std::_Allocate<Json::Value *>
PUBLIC	?allocate@?$allocator@PAVValue@Json@@@std@@QAEPAPAVValue@Json@@I@Z ; std::allocator<Json::Value *>::allocate
PUBLIC	??$_Allocate@PAPAVValue@Json@@@std@@YAPAPAPAVValue@Json@@IPAPAPAV12@@Z ; std::_Allocate<Json::Value * *>
PUBLIC	?allocate@?$allocator@PAPAVValue@Json@@@std@@QAEPAPAPAVValue@Json@@I@Z ; std::allocator<Json::Value * *>::allocate
PUBLIC	?max_size@?$allocator@PAVValue@Json@@@std@@QBEIXZ ; std::allocator<Json::Value *>::max_size
PUBLIC	?max_size@?$deque@PAVValue@Json@@V?$allocator@PAVValue@Json@@@std@@@std@@QBEIXZ ; std::deque<Json::Value *,std::allocator<Json::Value *> >::max_size
PUBLIC	?_Xlen@?$deque@PAVValue@Json@@V?$allocator@PAVValue@Json@@@std@@@std@@IBEXXZ ; std::deque<Json::Value *,std::allocator<Json::Value *> >::_Xlen
PUBLIC	??$_Uninit_copy@PAPAVValue@Json@@PAPAV12@@std@@YAPAPAPAVValue@Json@@PAPAPAV12@00AAV?$allocator@PAPAVValue@Json@@@0@U_Scalar_ptr_iterator_tag@0@@Z ; std::_Uninit_copy<Json::Value * *,Json::Value * *>
PUBLIC	??$_Uninitialized_copy@PAPAPAVValue@Json@@PAPAPAV12@V?$allocator@PAPAVValue@Json@@@std@@@std@@YAPAPAPAVValue@Json@@PAPAPAV12@00AAV?$allocator@PAPAVValue@Json@@@0@@Z ; std::_Uninitialized_copy<Json::Value * * *,Json::Value * * *,std::allocator<Json::Value * *> >
PUBLIC	??$_Val_type@PAPAPAVValue@Json@@@std@@YAPAPAPAVValue@Json@@PAPAPAV12@@Z ; std::_Val_type<Json::Value * * *>
PUBLIC	??$_Fill_n@PAPAPAVValue@Json@@IPAPAV12@@std@@YAXPAPAPAVValue@Json@@IABQAPAV12@@Z ; std::_Fill_n<Json::Value * * *,unsigned int,Json::Value * *>
PUBLIC	??$_Uninit_def_fill_n@PAPAVValue@Json@@IPAPAV12@PAPAV12@@std@@YAXPAPAPAVValue@Json@@IPBQAPAV12@AAV?$allocator@PAPAVValue@Json@@@0@0U_Scalar_ptr_iterator_tag@0@@Z ; std::_Uninit_def_fill_n<Json::Value * *,unsigned int,Json::Value * *,Json::Value * *>
PUBLIC	??$_Uninitialized_default_fill_n@PAPAPAVValue@Json@@IPAPAV12@V?$allocator@PAPAVValue@Json@@@std@@@std@@YAXPAPAPAVValue@Json@@IPBQAPAV12@AAV?$allocator@PAPAVValue@Json@@@0@@Z ; std::_Uninitialized_default_fill_n<Json::Value * * *,unsigned int,Json::Value * *,std::allocator<Json::Value * *> >
PUBLIC	??$_Ptr_cat@PAPAVValue@Json@@PAPAV12@@std@@YA?AU_Scalar_ptr_iterator_tag@0@PAPAPAVValue@Json@@0@Z ; std::_Ptr_cat<Json::Value * *,Json::Value * *>
PUBLIC	??$_Destroy_range@V?$allocator@PAPAVValue@Json@@@std@@@std@@YAXPAPAPAVValue@Json@@0AAV?$allocator@PAPAVValue@Json@@@0@U_Scalar_ptr_iterator_tag@0@@Z ; std::_Destroy_range<std::allocator<Json::Value * *> >
PUBLIC	??$_Destroy_range@V?$allocator@PAPAVValue@Json@@@std@@@std@@YAXPAPAPAVValue@Json@@0AAV?$allocator@PAPAVValue@Json@@@0@@Z ; std::_Destroy_range<std::allocator<Json::Value * *> >
PUBLIC	?_Growmap@?$deque@PAVValue@Json@@V?$allocator@PAVValue@Json@@@std@@@std@@IAEXI@Z ; std::deque<Json::Value *,std::allocator<Json::Value *> >::_Growmap
PUBLIC	?construct@?$allocator@PAVValue@Json@@@std@@QAEXPAPAVValue@Json@@$$QAPAV34@@Z ; std::allocator<Json::Value *>::construct
PUBLIC	??$forward@PAVValue@Json@@@std@@YA$$QAPAVValue@Json@@AAPAV12@@Z ; std::forward<Json::Value *>
PUBLIC	??$_Cons_val@V?$allocator@PAVValue@Json@@@std@@PAVValue@Json@@PAV34@@std@@YAXAAV?$allocator@PAVValue@Json@@@0@PAPAVValue@Json@@$$QAPAV23@@Z ; std::_Cons_val<std::allocator<Json::Value *>,Json::Value *,Json::Value *>
PUBLIC	?push_back@?$deque@PAVValue@Json@@V?$allocator@PAVValue@Json@@@std@@@std@@QAEX$$QAPAVValue@Json@@@Z ; std::deque<Json::Value *,std::allocator<Json::Value *> >::push_back
PUBLIC	??$move@AAPAVValue@Json@@@std@@YA$$QAPAVValue@Json@@AAPAV12@@Z ; std::move<Json::Value * &>
PUBLIC	?push@?$stack@PAVValue@Json@@V?$deque@PAVValue@Json@@V?$allocator@PAVValue@Json@@@std@@@std@@@std@@QAEX$$QAPAVValue@Json@@@Z ; std::stack<Json::Value *,std::deque<Json::Value *,std::allocator<Json::Value *> > >::push
PUBLIC	?pop@?$stack@PAVValue@Json@@V?$deque@PAVValue@Json@@V?$allocator@PAVValue@Json@@@std@@@std@@@std@@QAEXXZ ; std::stack<Json::Value *,std::deque<Json::Value *,std::allocator<Json::Value *> > >::pop
PUBLIC	??0?$basic_string@DU?$char_traits@D@std@@V?$allocator@D@2@@std@@QAE@PBD0@Z ; std::basic_string<char,std::char_traits<char>,std::allocator<char> >::basic_string<char,std::char_traits<char>,std::allocator<char> >
PUBLIC	??Y?$basic_string@DU?$char_traits@D@std@@V?$allocator@D@2@@std@@QAEAAV01@D@Z ; std::basic_string<char,std::char_traits<char>,std::allocator<char> >::operator+=
PUBLIC	??A?$basic_string@DU?$char_traits@D@std@@V?$allocator@D@2@@std@@QAEAADI@Z ; std::basic_string<char,std::char_traits<char>,std::allocator<char> >::operator[]
PUBLIC	?assign@?$char_traits@D@std@@SAPADPADID@Z	; std::char_traits<char>::assign
PUBLIC	?_Chassign@?$basic_string@DU?$char_traits@D@std@@V?$allocator@D@2@@std@@QAEXIID@Z ; std::basic_string<char,std::char_traits<char>,std::allocator<char> >::_Chassign
PUBLIC	?append@?$basic_string@DU?$char_traits@D@std@@V?$allocator@D@2@@std@@QAEAAV12@ID@Z ; std::basic_string<char,std::char_traits<char>,std::allocator<char> >::append
PUBLIC	?resize@?$basic_string@DU?$char_traits@D@std@@V?$allocator@D@2@@std@@QAEXID@Z ; std::basic_string<char,std::char_traits<char>,std::allocator<char> >::resize
PUBLIC	?resize@?$basic_string@DU?$char_traits@D@std@@V?$allocator@D@2@@std@@QAEXI@Z ; std::basic_string<char,std::char_traits<char>,std::allocator<char> >::resize
PUBLIC	??$_Construct@VErrorInfo@Reader@Json@@ABV123@@std@@YAXPAVErrorInfo@Reader@Json@@ABV123@@Z ; std::_Construct<Json::Reader::ErrorInfo,Json::Reader::ErrorInfo const &>
PUBLIC	?construct@?$allocator@VErrorInfo@Reader@Json@@@std@@QAEXPAVErrorInfo@Reader@Json@@ABV345@@Z ; std::allocator<Json::Reader::ErrorInfo>::construct
PUBLIC	??$forward@ABVErrorInfo@Reader@Json@@@std@@YAABVErrorInfo@Reader@Json@@ABV123@@Z ; std::forward<Json::Reader::ErrorInfo const &>
PUBLIC	??$_Cons_val@V?$allocator@VErrorInfo@Reader@Json@@@std@@VErrorInfo@Reader@Json@@ABV345@@std@@YAXAAV?$allocator@VErrorInfo@Reader@Json@@@0@PAVErrorInfo@Reader@Json@@ABV234@@Z ; std::_Cons_val<std::allocator<Json::Reader::ErrorInfo>,Json::Reader::ErrorInfo,Json::Reader::ErrorInfo const &>
PUBLIC	?push_back@?$deque@VErrorInfo@Reader@Json@@V?$allocator@VErrorInfo@Reader@Json@@@std@@@std@@QAEXABVErrorInfo@Reader@Json@@@Z ; std::deque<Json::Reader::ErrorInfo,std::allocator<Json::Reader::ErrorInfo> >::push_back
PUBLIC	??$_Allocate@VErrorInfo@Reader@Json@@@std@@YAPAVErrorInfo@Reader@Json@@IPAV123@@Z ; std::_Allocate<Json::Reader::ErrorInfo>
PUBLIC	?allocate@?$allocator@VErrorInfo@Reader@Json@@@std@@QAEPAVErrorInfo@Reader@Json@@I@Z ; std::allocator<Json::Reader::ErrorInfo>::allocate
PUBLIC	?begin@?$deque@VErrorInfo@Reader@Json@@V?$allocator@VErrorInfo@Reader@Json@@@std@@@std@@QAE?AV?$_Deque_iterator@VErrorInfo@Reader@Json@@V?$allocator@VErrorInfo@Reader@Json@@@std@@@2@XZ ; std::deque<Json::Reader::ErrorInfo,std::allocator<Json::Reader::ErrorInfo> >::begin
PUBLIC	?end@?$deque@VErrorInfo@Reader@Json@@V?$allocator@VErrorInfo@Reader@Json@@@std@@@std@@QAE?AV?$_Deque_iterator@VErrorInfo@Reader@Json@@V?$allocator@VErrorInfo@Reader@Json@@@std@@@2@XZ ; std::deque<Json::Reader::ErrorInfo,std::allocator<Json::Reader::ErrorInfo> >::end
PUBLIC	??0?$_Deque_iterator@VErrorInfo@Reader@Json@@V?$allocator@VErrorInfo@Reader@Json@@@std@@@std@@QAE@IPBU_Container_base12@1@@Z ; std::_Deque_iterator<Json::Reader::ErrorInfo,std::allocator<Json::Reader::ErrorInfo> >::_Deque_iterator<Json::Reader::ErrorInfo,std::allocator<Json::Reader::ErrorInfo> >
PUBLIC	?_Make_iter@?$deque@VErrorInfo@Reader@Json@@V?$allocator@VErrorInfo@Reader@Json@@@std@@@std@@QBE?AV?$_Deque_iterator@VErrorInfo@Reader@Json@@V?$allocator@VErrorInfo@Reader@Json@@@std@@@2@V?$_Deque_const_iterator@VErrorInfo@Reader@Json@@V?$allocator@VErrorInfo@Reader@Json@@@std@@@2@@Z ; std::deque<Json::Reader::ErrorInfo,std::allocator<Json::Reader::ErrorInfo> >::_Make_iter
PUBLIC	?pop_front@?$deque@VErrorInfo@Reader@Json@@V?$allocator@VErrorInfo@Reader@Json@@@std@@@std@@QAEXXZ ; std::deque<Json::Reader::ErrorInfo,std::allocator<Json::Reader::ErrorInfo> >::pop_front
PUBLIC	??G?$_Deque_const_iterator@VErrorInfo@Reader@Json@@V?$allocator@VErrorInfo@Reader@Json@@@std@@@std@@QBEHABV01@@Z ; std::_Deque_const_iterator<Json::Reader::ErrorInfo,std::allocator<Json::Reader::ErrorInfo> >::operator-
PUBLIC	??G?$_Deque_iterator@VErrorInfo@Reader@Json@@V?$allocator@VErrorInfo@Reader@Json@@@std@@@std@@QBEHABV?$_Deque_const_iterator@VErrorInfo@Reader@Json@@V?$allocator@VErrorInfo@Reader@Json@@@std@@@1@@Z ; std::_Deque_iterator<Json::Reader::ErrorInfo,std::allocator<Json::Reader::ErrorInfo> >::operator-
PUBLIC	??F?$_Deque_const_iterator@VErrorInfo@Reader@Json@@V?$allocator@VErrorInfo@Reader@Json@@@std@@@std@@QAEAAV01@XZ ; std::_Deque_const_iterator<Json::Reader::ErrorInfo,std::allocator<Json::Reader::ErrorInfo> >::operator--
PUBLIC	??F?$_Deque_iterator@VErrorInfo@Reader@Json@@V?$allocator@VErrorInfo@Reader@Json@@@std@@@std@@QAEAAV01@XZ ; std::_Deque_iterator<Json::Reader::ErrorInfo,std::allocator<Json::Reader::ErrorInfo> >::operator--
PUBLIC	??$_Move_backward@V?$_Deque_iterator@VErrorInfo@Reader@Json@@V?$allocator@VErrorInfo@Reader@Json@@@std@@@std@@V12@@std@@YA?AV?$_Deque_iterator@VErrorInfo@Reader@Json@@V?$allocator@VErrorInfo@Reader@Json@@@std@@@0@V10@00U_Nonscalar_ptr_iterator_tag@0@@Z ; std::_Move_backward<std::_Deque_iterator<Json::Reader::ErrorInfo,std::allocator<Json::Reader::ErrorInfo> >,std::_Deque_iterator<Json::Reader::ErrorInfo,std::allocator<Json::Reader::ErrorInfo> > >
PUBLIC	??$_Move_backward@V?$_Deque_iterator@VErrorInfo@Reader@Json@@V?$allocator@VErrorInfo@Reader@Json@@@std@@@std@@V12@@std@@YA?AV?$_Deque_iterator@VErrorInfo@Reader@Json@@V?$allocator@VErrorInfo@Reader@Json@@@std@@@0@V10@00@Z ; std::_Move_backward<std::_Deque_iterator<Json::Reader::ErrorInfo,std::allocator<Json::Reader::ErrorInfo> >,std::_Deque_iterator<Json::Reader::ErrorInfo,std::allocator<Json::Reader::ErrorInfo> > >
PUBLIC	??$_Ptr_cat@V?$_Deque_iterator@VErrorInfo@Reader@Json@@V?$allocator@VErrorInfo@Reader@Json@@@std@@@std@@V12@@std@@YA?AU_Nonscalar_ptr_iterator_tag@0@AAV?$_Deque_iterator@VErrorInfo@Reader@Json@@V?$allocator@VErrorInfo@Reader@Json@@@std@@@0@0@Z ; std::_Ptr_cat<std::_Deque_iterator<Json::Reader::ErrorInfo,std::allocator<Json::Reader::ErrorInfo> >,std::_Deque_iterator<Json::Reader::ErrorInfo,std::allocator<Json::Reader::ErrorInfo> > >
PUBLIC	??4ErrorInfo@Reader@Json@@QAEAAV012@ABV012@@Z	; Json::Reader::ErrorInfo::operator=
PUBLIC	??D?$_Deque_iterator@VErrorInfo@Reader@Json@@V?$allocator@VErrorInfo@Reader@Json@@@std@@@std@@QBEAAVErrorInfo@Reader@Json@@XZ ; std::_Deque_iterator<Json::Reader::ErrorInfo,std::allocator<Json::Reader::ErrorInfo> >::operator*
PUBLIC	??E?$_Deque_iterator@VErrorInfo@Reader@Json@@V?$allocator@VErrorInfo@Reader@Json@@@std@@@std@@QAEAAV01@XZ ; std::_Deque_iterator<Json::Reader::ErrorInfo,std::allocator<Json::Reader::ErrorInfo> >::operator++
PUBLIC	??$move@AAVErrorInfo@Reader@Json@@@std@@YA$$QAVErrorInfo@Reader@Json@@AAV123@@Z ; std::move<Json::Reader::ErrorInfo &>
PUBLIC	??$_Move@V?$_Deque_iterator@VErrorInfo@Reader@Json@@V?$allocator@VErrorInfo@Reader@Json@@@std@@@std@@V12@@std@@YA?AV?$_Deque_iterator@VErrorInfo@Reader@Json@@V?$allocator@VErrorInfo@Reader@Json@@@std@@@0@V10@00U_Nonscalar_ptr_iterator_tag@0@@Z ; std::_Move<std::_Deque_iterator<Json::Reader::ErrorInfo,std::allocator<Json::Reader::ErrorInfo> >,std::_Deque_iterator<Json::Reader::ErrorInfo,std::allocator<Json::Reader::ErrorInfo> > >
PUBLIC	??$_Move@V?$_Deque_iterator@VErrorInfo@Reader@Json@@V?$allocator@VErrorInfo@Reader@Json@@@std@@@std@@V12@@std@@YA?AV?$_Deque_iterator@VErrorInfo@Reader@Json@@V?$allocator@VErrorInfo@Reader@Json@@@std@@@0@V10@00@Z ; std::_Move<std::_Deque_iterator<Json::Reader::ErrorInfo,std::allocator<Json::Reader::ErrorInfo> >,std::_Deque_iterator<Json::Reader::ErrorInfo,std::allocator<Json::Reader::ErrorInfo> > >
PUBLIC	?erase@?$deque@VErrorInfo@Reader@Json@@V?$allocator@VErrorInfo@Reader@Json@@@std@@@std@@QAE?AV?$_Deque_iterator@VErrorInfo@Reader@Json@@V?$allocator@VErrorInfo@Reader@Json@@@std@@@2@V?$_Deque_const_iterator@VErrorInfo@Reader@Json@@V?$allocator@VErrorInfo@Reader@Json@@@std@@@2@0@Z ; std::deque<Json::Reader::ErrorInfo,std::allocator<Json::Reader::ErrorInfo> >::erase
PUBLIC	??$_Allocate@PAVErrorInfo@Reader@Json@@@std@@YAPAPAVErrorInfo@Reader@Json@@IPAPAV123@@Z ; std::_Allocate<Json::Reader::ErrorInfo *>
PUBLIC	?allocate@?$allocator@PAVErrorInfo@Reader@Json@@@std@@QAEPAPAVErrorInfo@Reader@Json@@I@Z ; std::allocator<Json::Reader::ErrorInfo *>::allocate
PUBLIC	?max_size@?$allocator@VErrorInfo@Reader@Json@@@std@@QBEIXZ ; std::allocator<Json::Reader::ErrorInfo>::max_size
PUBLIC	?max_size@?$deque@VErrorInfo@Reader@Json@@V?$allocator@VErrorInfo@Reader@Json@@@std@@@std@@QBEIXZ ; std::deque<Json::Reader::ErrorInfo,std::allocator<Json::Reader::ErrorInfo> >::max_size
PUBLIC	?_Xlen@?$deque@VErrorInfo@Reader@Json@@V?$allocator@VErrorInfo@Reader@Json@@@std@@@std@@IBEXXZ ; std::deque<Json::Reader::ErrorInfo,std::allocator<Json::Reader::ErrorInfo> >::_Xlen
PUBLIC	??$_Uninit_copy@PAVErrorInfo@Reader@Json@@PAV123@@std@@YAPAPAVErrorInfo@Reader@Json@@PAPAV123@00AAV?$allocator@PAVErrorInfo@Reader@Json@@@0@U_Scalar_ptr_iterator_tag@0@@Z ; std::_Uninit_copy<Json::Reader::ErrorInfo *,Json::Reader::ErrorInfo *>
PUBLIC	??$_Uninitialized_copy@PAPAVErrorInfo@Reader@Json@@PAPAV123@V?$allocator@PAVErrorInfo@Reader@Json@@@std@@@std@@YAPAPAVErrorInfo@Reader@Json@@PAPAV123@00AAV?$allocator@PAVErrorInfo@Reader@Json@@@0@@Z ; std::_Uninitialized_copy<Json::Reader::ErrorInfo * *,Json::Reader::ErrorInfo * *,std::allocator<Json::Reader::ErrorInfo *> >
PUBLIC	??$_Val_type@PAPAVErrorInfo@Reader@Json@@@std@@YAPAPAVErrorInfo@Reader@Json@@PAPAV123@@Z ; std::_Val_type<Json::Reader::ErrorInfo * *>
PUBLIC	??$_Fill_n@PAPAVErrorInfo@Reader@Json@@IPAV123@@std@@YAXPAPAVErrorInfo@Reader@Json@@IABQAV123@@Z ; std::_Fill_n<Json::Reader::ErrorInfo * *,unsigned int,Json::Reader::ErrorInfo *>
PUBLIC	??$_Uninit_def_fill_n@PAVErrorInfo@Reader@Json@@IPAV123@PAV123@@std@@YAXPAPAVErrorInfo@Reader@Json@@IPBQAV123@AAV?$allocator@PAVErrorInfo@Reader@Json@@@0@0U_Scalar_ptr_iterator_tag@0@@Z ; std::_Uninit_def_fill_n<Json::Reader::ErrorInfo *,unsigned int,Json::Reader::ErrorInfo *,Json::Reader::ErrorInfo *>
PUBLIC	??$_Uninitialized_default_fill_n@PAPAVErrorInfo@Reader@Json@@IPAV123@V?$allocator@PAVErrorInfo@Reader@Json@@@std@@@std@@YAXPAPAVErrorInfo@Reader@Json@@IPBQAV123@AAV?$allocator@PAVErrorInfo@Reader@Json@@@0@@Z ; std::_Uninitialized_default_fill_n<Json::Reader::ErrorInfo * *,unsigned int,Json::Reader::ErrorInfo *,std::allocator<Json::Reader::ErrorInfo *> >
PUBLIC	??$_Ptr_cat@PAVErrorInfo@Reader@Json@@PAV123@@std@@YA?AU_Scalar_ptr_iterator_tag@0@PAPAVErrorInfo@Reader@Json@@0@Z ; std::_Ptr_cat<Json::Reader::ErrorInfo *,Json::Reader::ErrorInfo *>
PUBLIC	??$_Destroy_range@V?$allocator@PAVErrorInfo@Reader@Json@@@std@@@std@@YAXPAPAVErrorInfo@Reader@Json@@0AAV?$allocator@PAVErrorInfo@Reader@Json@@@0@U_Scalar_ptr_iterator_tag@0@@Z ; std::_Destroy_range<std::allocator<Json::Reader::ErrorInfo *> >
PUBLIC	??$_Destroy_range@V?$allocator@PAVErrorInfo@Reader@Json@@@std@@@std@@YAXPAPAVErrorInfo@Reader@Json@@0AAV?$allocator@PAVErrorInfo@Reader@Json@@@0@@Z ; std::_Destroy_range<std::allocator<Json::Reader::ErrorInfo *> >
PUBLIC	?_Growmap@?$deque@VErrorInfo@Reader@Json@@V?$allocator@VErrorInfo@Reader@Json@@@std@@@std@@IAEXI@Z ; std::deque<Json::Reader::ErrorInfo,std::allocator<Json::Reader::ErrorInfo> >::_Growmap
PUBLIC	??Y?$_Deque_iterator@VErrorInfo@Reader@Json@@V?$allocator@VErrorInfo@Reader@Json@@@std@@@std@@QAEAAV01@H@Z ; std::_Deque_iterator<Json::Reader::ErrorInfo,std::allocator<Json::Reader::ErrorInfo> >::operator+=
PUBLIC	??0?$_Deque_const_iterator@VErrorInfo@Reader@Json@@V?$allocator@VErrorInfo@Reader@Json@@@std@@@std@@QAE@ABV01@@Z ; std::_Deque_const_iterator<Json::Reader::ErrorInfo,std::allocator<Json::Reader::ErrorInfo> >::_Deque_const_iterator<Json::Reader::ErrorInfo,std::allocator<Json::Reader::ErrorInfo> >
PUBLIC	??0?$_Deque_iterator@VErrorInfo@Reader@Json@@V?$allocator@VErrorInfo@Reader@Json@@@std@@@std@@QAE@ABV01@@Z ; std::_Deque_iterator<Json::Reader::ErrorInfo,std::allocator<Json::Reader::ErrorInfo> >::_Deque_iterator<Json::Reader::ErrorInfo,std::allocator<Json::Reader::ErrorInfo> >
PUBLIC	??H?$_Deque_iterator@VErrorInfo@Reader@Json@@V?$allocator@VErrorInfo@Reader@Json@@@std@@@std@@QBE?AV01@H@Z ; std::_Deque_iterator<Json::Reader::ErrorInfo,std::allocator<Json::Reader::ErrorInfo> >::operator+
PUBLIC	??1?$_Deque_iterator@VErrorInfo@Reader@Json@@V?$allocator@VErrorInfo@Reader@Json@@@std@@@std@@QAE@XZ ; std::_Deque_iterator<Json::Reader::ErrorInfo,std::allocator<Json::Reader::ErrorInfo> >::~_Deque_iterator<Json::Reader::ErrorInfo,std::allocator<Json::Reader::ErrorInfo> >
PUBLIC	??$_Val_type@PAVErrorInfo@Reader@Json@@@std@@YAPAVErrorInfo@Reader@Json@@PAV123@@Z ; std::_Val_type<Json::Reader::ErrorInfo *>
PUBLIC	??$_Ptr_cat@VErrorInfo@Reader@Json@@V123@@std@@YA?AU_Nonscalar_ptr_iterator_tag@0@PAVErrorInfo@Reader@Json@@0@Z ; std::_Ptr_cat<Json::Reader::ErrorInfo,Json::Reader::ErrorInfo>
PUBLIC	??0ErrorInfo@Reader@Json@@QAE@XZ		; Json::Reader::ErrorInfo::ErrorInfo
PUBLIC	??2@YAPAXIPAX@Z					; operator new
PUBLIC	??3@YAXPAX0@Z					; operator delete
PUBLIC	??0?$basic_string@DU?$char_traits@D@std@@V?$allocator@D@2@@std@@QAE@ABV01@@Z ; std::basic_string<char,std::char_traits<char>,std::allocator<char> >::basic_string<char,std::char_traits<char>,std::allocator<char> >
PUBLIC	??0ErrorInfo@Reader@Json@@QAE@ABV012@@Z		; Json::Reader::ErrorInfo::ErrorInfo
PUBLIC	?construct@?$allocator@VErrorInfo@Reader@Json@@@std@@QAEXPAVErrorInfo@Reader@Json@@$$QAV345@@Z ; std::allocator<Json::Reader::ErrorInfo>::construct
PUBLIC	??$forward@VErrorInfo@Reader@Json@@@std@@YA$$QAVErrorInfo@Reader@Json@@AAV123@@Z ; std::forward<Json::Reader::ErrorInfo>
PUBLIC	??$_Cons_val@V?$allocator@VErrorInfo@Reader@Json@@@std@@VErrorInfo@Reader@Json@@V345@@std@@YAXAAV?$allocator@VErrorInfo@Reader@Json@@@0@PAVErrorInfo@Reader@Json@@$$QAV234@@Z ; std::_Cons_val<std::allocator<Json::Reader::ErrorInfo>,Json::Reader::ErrorInfo,Json::Reader::ErrorInfo>
PUBLIC	??$_Uninit_def_fill_n@PAVErrorInfo@Reader@Json@@HV123@V?$allocator@VErrorInfo@Reader@Json@@@std@@V123@@std@@YAXPAVErrorInfo@Reader@Json@@HPBV123@AAV?$allocator@VErrorInfo@Reader@Json@@@0@0U_Nonscalar_ptr_iterator_tag@0@@Z ; std::_Uninit_def_fill_n<Json::Reader::ErrorInfo *,int,Json::Reader::ErrorInfo,std::allocator<Json::Reader::ErrorInfo>,Json::Reader::ErrorInfo>
PUBLIC	??$_Uninitialized_default_fill_n@PAVErrorInfo@Reader@Json@@HV123@V?$allocator@VErrorInfo@Reader@Json@@@std@@@std@@YAXPAVErrorInfo@Reader@Json@@HPBV123@AAV?$allocator@VErrorInfo@Reader@Json@@@0@@Z ; std::_Uninitialized_default_fill_n<Json::Reader::ErrorInfo *,int,Json::Reader::ErrorInfo,std::allocator<Json::Reader::ErrorInfo> >
PUBLIC	?resize@?$deque@VErrorInfo@Reader@Json@@V?$allocator@VErrorInfo@Reader@Json@@@std@@@std@@QAEXI@Z ; std::deque<Json::Reader::ErrorInfo,std::allocator<Json::Reader::ErrorInfo> >::resize
PUBLIC	?size@?$deque@VErrorInfo@Reader@Json@@V?$allocator@VErrorInfo@Reader@Json@@@std@@@std@@QBEIXZ ; std::deque<Json::Reader::ErrorInfo,std::allocator<Json::Reader::ErrorInfo> >::size
PUBLIC	?_Setcont@?$_Deque_const_iterator@PAVValue@Json@@V?$allocator@PAVValue@Json@@@std@@@std@@QAEXPBV?$deque@PAVValue@Json@@V?$allocator@PAVValue@Json@@@std@@@2@@Z ; std::_Deque_const_iterator<Json::Value *,std::allocator<Json::Value *> >::_Setcont
PUBLIC	??0?$_Deque_const_iterator@PAVValue@Json@@V?$allocator@PAVValue@Json@@@std@@@std@@QAE@IPBU_Container_base12@1@@Z ; std::_Deque_const_iterator<Json::Value *,std::allocator<Json::Value *> >::_Deque_const_iterator<Json::Value *,std::allocator<Json::Value *> >
PUBLIC	??0?$_Deque_iterator@PAVValue@Json@@V?$allocator@PAVValue@Json@@@std@@@std@@QAE@IPBU_Container_base12@1@@Z ; std::_Deque_iterator<Json::Value *,std::allocator<Json::Value *> >::_Deque_iterator<Json::Value *,std::allocator<Json::Value *> >
PUBLIC	?end@?$deque@PAVValue@Json@@V?$allocator@PAVValue@Json@@@std@@@std@@QAE?AV?$_Deque_iterator@PAVValue@Json@@V?$allocator@PAVValue@Json@@@std@@@2@XZ ; std::deque<Json::Value *,std::allocator<Json::Value *> >::end
PUBLIC	??D?$_Deque_const_iterator@PAVValue@Json@@V?$allocator@PAVValue@Json@@@std@@@std@@QBEABQAVValue@Json@@XZ ; std::_Deque_const_iterator<Json::Value *,std::allocator<Json::Value *> >::operator*
PUBLIC	??D?$_Deque_iterator@PAVValue@Json@@V?$allocator@PAVValue@Json@@@std@@@std@@QBEAAPAVValue@Json@@XZ ; std::_Deque_iterator<Json::Value *,std::allocator<Json::Value *> >::operator*
PUBLIC	??Y?$_Deque_iterator@PAVValue@Json@@V?$allocator@PAVValue@Json@@@std@@@std@@QAEAAV01@H@Z ; std::_Deque_iterator<Json::Value *,std::allocator<Json::Value *> >::operator+=
PUBLIC	??Z?$_Deque_iterator@PAVValue@Json@@V?$allocator@PAVValue@Json@@@std@@@std@@QAEAAV01@H@Z ; std::_Deque_iterator<Json::Value *,std::allocator<Json::Value *> >::operator-=
PUBLIC	??4_Iterator_base12@std@@QAEAAU01@ABU01@@Z	; std::_Iterator_base12::operator=
PUBLIC	??0_Iterator_base12@std@@QAE@ABU01@@Z		; std::_Iterator_base12::_Iterator_base12
PUBLIC	??0?$_Deque_const_iterator@PAVValue@Json@@V?$allocator@PAVValue@Json@@@std@@@std@@QAE@ABV01@@Z ; std::_Deque_const_iterator<Json::Value *,std::allocator<Json::Value *> >::_Deque_const_iterator<Json::Value *,std::allocator<Json::Value *> >
PUBLIC	??0?$_Deque_iterator@PAVValue@Json@@V?$allocator@PAVValue@Json@@@std@@@std@@QAE@ABV01@@Z ; std::_Deque_iterator<Json::Value *,std::allocator<Json::Value *> >::_Deque_iterator<Json::Value *,std::allocator<Json::Value *> >
PUBLIC	??G?$_Deque_iterator@PAVValue@Json@@V?$allocator@PAVValue@Json@@@std@@@std@@QBE?AV01@H@Z ; std::_Deque_iterator<Json::Value *,std::allocator<Json::Value *> >::operator-
PUBLIC	??1?$_Deque_const_iterator@PAVValue@Json@@V?$allocator@PAVValue@Json@@@std@@@std@@QAE@XZ ; std::_Deque_const_iterator<Json::Value *,std::allocator<Json::Value *> >::~_Deque_const_iterator<Json::Value *,std::allocator<Json::Value *> >
PUBLIC	??1?$_Deque_iterator@PAVValue@Json@@V?$allocator@PAVValue@Json@@@std@@@std@@QAE@XZ ; std::_Deque_iterator<Json::Value *,std::allocator<Json::Value *> >::~_Deque_iterator<Json::Value *,std::allocator<Json::Value *> >
PUBLIC	?back@?$deque@PAVValue@Json@@V?$allocator@PAVValue@Json@@@std@@@std@@QAEAAPAVValue@Json@@XZ ; std::deque<Json::Value *,std::allocator<Json::Value *> >::back
PUBLIC	?top@?$stack@PAVValue@Json@@V?$deque@PAVValue@Json@@V?$allocator@PAVValue@Json@@@std@@@std@@@std@@QAEAAPAVValue@Json@@XZ ; std::stack<Json::Value *,std::deque<Json::Value *,std::allocator<Json::Value *> > >::top
PUBLIC	?assign@?$basic_string@DU?$char_traits@D@std@@V?$allocator@D@2@@std@@QAEAAV12@PBDI@Z ; std::basic_string<char,std::char_traits<char>,std::allocator<char> >::assign
PUBLIC	?assign@?$basic_string@DU?$char_traits@D@std@@V?$allocator@D@2@@std@@QAEAAV12@PBD@Z ; std::basic_string<char,std::char_traits<char>,std::allocator<char> >::assign
PUBLIC	??0?$basic_string@DU?$char_traits@D@std@@V?$allocator@D@2@@std@@QAE@PBD@Z ; std::basic_string<char,std::char_traits<char>,std::allocator<char> >::basic_string<char,std::char_traits<char>,std::allocator<char> >
PUBLIC	?begin@?$deque@VErrorInfo@Reader@Json@@V?$allocator@VErrorInfo@Reader@Json@@@std@@@std@@QBE?AV?$_Deque_const_iterator@VErrorInfo@Reader@Json@@V?$allocator@VErrorInfo@Reader@Json@@@std@@@2@XZ ; std::deque<Json::Reader::ErrorInfo,std::allocator<Json::Reader::ErrorInfo> >::begin
PUBLIC	??0_Iterator_base12@std@@QAE@XZ			; std::_Iterator_base12::_Iterator_base12
PUBLIC	?_Adopt@_Iterator_base12@std@@QAEXPBU_Container_base12@2@@Z ; std::_Iterator_base12::_Adopt
PUBLIC	?_Setcont@?$_Deque_const_iterator@VErrorInfo@Reader@Json@@V?$allocator@VErrorInfo@Reader@Json@@@std@@@std@@QAEXPBV?$deque@VErrorInfo@Reader@Json@@V?$allocator@VErrorInfo@Reader@Json@@@std@@@2@@Z ; std::_Deque_const_iterator<Json::Reader::ErrorInfo,std::allocator<Json::Reader::ErrorInfo> >::_Setcont
PUBLIC	??0?$_Deque_const_iterator@VErrorInfo@Reader@Json@@V?$allocator@VErrorInfo@Reader@Json@@@std@@@std@@QAE@IPBU_Container_base12@1@@Z ; std::_Deque_const_iterator<Json::Reader::ErrorInfo,std::allocator<Json::Reader::ErrorInfo> >::_Deque_const_iterator<Json::Reader::ErrorInfo,std::allocator<Json::Reader::ErrorInfo> >
PUBLIC	?end@?$deque@VErrorInfo@Reader@Json@@V?$allocator@VErrorInfo@Reader@Json@@@std@@@std@@QBE?AV?$_Deque_const_iterator@VErrorInfo@Reader@Json@@V?$allocator@VErrorInfo@Reader@Json@@@std@@@2@XZ ; std::deque<Json::Reader::ErrorInfo,std::allocator<Json::Reader::ErrorInfo> >::end
PUBLIC	?insert@?$basic_string@DU?$char_traits@D@std@@V?$allocator@D@2@@std@@QAEAAV12@IABV12@II@Z ; std::basic_string<char,std::char_traits<char>,std::allocator<char> >::insert
PUBLIC	?insert@?$basic_string@DU?$char_traits@D@std@@V?$allocator@D@2@@std@@QAEAAV12@IPBDI@Z ; std::basic_string<char,std::char_traits<char>,std::allocator<char> >::insert
PUBLIC	?insert@?$basic_string@DU?$char_traits@D@std@@V?$allocator@D@2@@std@@QAEAAV12@IPBD@Z ; std::basic_string<char,std::char_traits<char>,std::allocator<char> >::insert
PUBLIC	??$?HDU?$char_traits@D@std@@V?$allocator@D@1@@std@@YA?AV?$basic_string@DU?$char_traits@D@std@@V?$allocator@D@2@@0@PBD$$QAV10@@Z ; std::operator+<char,std::char_traits<char>,std::allocator<char> >
PUBLIC	??0?$allocator@D@std@@QAE@XZ			; std::allocator<char>::allocator<char>
PUBLIC	??0?$basic_string@DU?$char_traits@D@std@@V?$allocator@D@2@@std@@QAE@XZ ; std::basic_string<char,std::char_traits<char>,std::allocator<char> >::basic_string<char,std::char_traits<char>,std::allocator<char> >
PUBLIC	?append@?$basic_string@DU?$char_traits@D@std@@V?$allocator@D@2@@std@@QAEAAV12@ABV12@@Z ; std::basic_string<char,std::char_traits<char>,std::allocator<char> >::append
PUBLIC	??Y?$basic_string@DU?$char_traits@D@std@@V?$allocator@D@2@@std@@QAEAAV01@ABV01@@Z ; std::basic_string<char,std::char_traits<char>,std::allocator<char> >::operator+=
PUBLIC	??Y?$basic_string@DU?$char_traits@D@std@@V?$allocator@D@2@@std@@QAEAAV01@PBD@Z ; std::basic_string<char,std::char_traits<char>,std::allocator<char> >::operator+=
PUBLIC	?reserve@?$basic_string@DU?$char_traits@D@std@@V?$allocator@D@2@@std@@QAEXI@Z ; std::basic_string<char,std::char_traits<char>,std::allocator<char> >::reserve
PUBLIC	??$?HDU?$char_traits@D@std@@V?$allocator@D@1@@std@@YA?AV?$basic_string@DU?$char_traits@D@std@@V?$allocator@D@2@@0@PBDABV10@@Z ; std::operator+<char,std::char_traits<char>,std::allocator<char> >
PUBLIC	??0?$_String_val@DV?$allocator@D@std@@@std@@QAE@V?$allocator@D@1@@Z ; std::_String_val<char,std::allocator<char> >::_String_val<char,std::allocator<char> >
PUBLIC	?move@?$char_traits@D@std@@SAPADPADPBDI@Z	; std::char_traits<char>::move
PUBLIC	?erase@?$basic_string@DU?$char_traits@D@std@@V?$allocator@D@2@@std@@QAEAAV12@II@Z ; std::basic_string<char,std::char_traits<char>,std::allocator<char> >::erase
PUBLIC	?assign@?$basic_string@DU?$char_traits@D@std@@V?$allocator@D@2@@std@@QAEAAV12@ABV12@II@Z ; std::basic_string<char,std::char_traits<char>,std::allocator<char> >::assign
PUBLIC	?assign@?$basic_string@DU?$char_traits@D@std@@V?$allocator@D@2@@std@@QAEAAV12@ABV12@@Z ; std::basic_string<char,std::char_traits<char>,std::allocator<char> >::assign
PUBLIC	??4?$basic_string@DU?$char_traits@D@std@@V?$allocator@D@2@@std@@QAEAAV01@ABV01@@Z ; std::basic_string<char,std::char_traits<char>,std::allocator<char> >::operator=
PUBLIC	??0?$allocator@D@std@@QAE@ABV01@@Z		; std::allocator<char>::allocator<char>
PUBLIC	?get_allocator@?$basic_string@DU?$char_traits@D@std@@V?$allocator@D@2@@std@@QBE?AV?$allocator@D@2@XZ ; std::basic_string<char,std::char_traits<char>,std::allocator<char> >::get_allocator
PUBLIC	??$?8DD@std@@YA_NABV?$allocator@D@0@0@Z		; std::operator==<char,char>
PUBLIC	??$?9DD@std@@YA_NABV?$allocator@D@0@0@Z		; std::operator!=<char,char>
PUBLIC	?assign@?$basic_string@DU?$char_traits@D@std@@V?$allocator@D@2@@std@@QAEAAV12@$$QAV12@@Z ; std::basic_string<char,std::char_traits<char>,std::allocator<char> >::assign
PUBLIC	??$forward@V?$allocator@D@std@@@std@@YA$$QAV?$allocator@D@0@AAV10@@Z ; std::forward<std::allocator<char> >
PUBLIC	??$forward@V?$basic_string@DU?$char_traits@D@std@@V?$allocator@D@2@@std@@@std@@YA$$QAV?$basic_string@DU?$char_traits@D@std@@V?$allocator@D@2@@0@AAV10@@Z ; std::forward<std::basic_string<char,std::char_traits<char>,std::allocator<char> > >
PUBLIC	??0?$basic_string@DU?$char_traits@D@std@@V?$allocator@D@2@@std@@QAE@$$QAV01@@Z ; std::basic_string<char,std::char_traits<char>,std::allocator<char> >::basic_string<char,std::char_traits<char>,std::allocator<char> >
PUBLIC	?length@?$char_traits@D@std@@SAIPBD@Z		; std::char_traits<char>::length
PUBLIC	?size@?$basic_string@DU?$char_traits@D@std@@V?$allocator@D@2@@std@@QBEIXZ ; std::basic_string<char,std::char_traits<char>,std::allocator<char> >::size
PUBLIC	?_Xran@?$basic_string@DU?$char_traits@D@std@@V?$allocator@D@2@@std@@QBEXXZ ; std::basic_string<char,std::char_traits<char>,std::allocator<char> >::_Xran
PUBLIC	?append@?$basic_string@DU?$char_traits@D@std@@V?$allocator@D@2@@std@@QAEAAV12@ABV12@II@Z ; std::basic_string<char,std::char_traits<char>,std::allocator<char> >::append
PUBLIC	??0bad_alloc@std@@QAE@PBD@Z			; std::bad_alloc::bad_alloc
PUBLIC	??1bad_alloc@std@@UAE@XZ			; std::bad_alloc::~bad_alloc
PUBLIC	??_Gbad_alloc@std@@UAEPAXI@Z			; std::bad_alloc::`scalar deleting destructor'
PUBLIC	??0bad_alloc@std@@QAE@ABV01@@Z			; std::bad_alloc::bad_alloc
PUBLIC	??$_Allocate@D@std@@YAPADIPAD@Z			; std::_Allocate<char>
PUBLIC	?allocate@?$allocator@D@std@@QAEPADI@Z		; std::allocator<char>::allocate
PUBLIC	?max_size@?$allocator@D@std@@QBEIXZ		; std::allocator<char>::max_size
PUBLIC	?max_size@?$basic_string@DU?$char_traits@D@std@@V?$allocator@D@2@@std@@QBEIXZ ; std::basic_string<char,std::char_traits<char>,std::allocator<char> >::max_size
PUBLIC	?_Copy@?$basic_string@DU?$char_traits@D@std@@V?$allocator@D@2@@std@@QAEXII@Z ; std::basic_string<char,std::char_traits<char>,std::allocator<char> >::_Copy
PUBLIC	?_Grow@?$basic_string@DU?$char_traits@D@std@@V?$allocator@D@2@@std@@QAE_NI_N@Z ; std::basic_string<char,std::char_traits<char>,std::allocator<char> >::_Grow
PUBLIC	?_Inside@?$basic_string@DU?$char_traits@D@std@@V?$allocator@D@2@@std@@QAE_NPBD@Z ; std::basic_string<char,std::char_traits<char>,std::allocator<char> >::_Inside
PUBLIC	?_Xlen@?$basic_string@DU?$char_traits@D@std@@V?$allocator@D@2@@std@@QBEXXZ ; std::basic_string<char,std::char_traits<char>,std::allocator<char> >::_Xlen
PUBLIC	?append@?$basic_string@DU?$char_traits@D@std@@V?$allocator@D@2@@std@@QAEAAV12@PBDI@Z ; std::basic_string<char,std::char_traits<char>,std::allocator<char> >::append
PUBLIC	?append@?$basic_string@DU?$char_traits@D@std@@V?$allocator@D@2@@std@@QAEAAV12@PBD@Z ; std::basic_string<char,std::char_traits<char>,std::allocator<char> >::append
PUBLIC	??$move@AAV?$basic_string@DU?$char_traits@D@std@@V?$allocator@D@2@@std@@@std@@YA$$QAV?$basic_string@DU?$char_traits@D@std@@V?$allocator@D@2@@0@AAV10@@Z ; std::move<std::basic_string<char,std::char_traits<char>,std::allocator<char> > &>
PUBLIC	??$?HDU?$char_traits@D@std@@V?$allocator@D@1@@std@@YA?AV?$basic_string@DU?$char_traits@D@std@@V?$allocator@D@2@@0@$$QAV10@PBD@Z ; std::operator+<char,std::char_traits<char>,std::allocator<char> >
PUBLIC	?_Getcont@_Iterator_base12@std@@QBEPBU_Container_base12@2@XZ ; std::_Iterator_base12::_Getcont
PUBLIC	??D?$_Deque_const_iterator@VErrorInfo@Reader@Json@@V?$allocator@VErrorInfo@Reader@Json@@@std@@@std@@QBEABVErrorInfo@Reader@Json@@XZ ; std::_Deque_const_iterator<Json::Reader::ErrorInfo,std::allocator<Json::Reader::ErrorInfo> >::operator*
PUBLIC	??E?$_Deque_const_iterator@VErrorInfo@Reader@Json@@V?$allocator@VErrorInfo@Reader@Json@@@std@@@std@@QAEAAV01@XZ ; std::_Deque_const_iterator<Json::Reader::ErrorInfo,std::allocator<Json::Reader::ErrorInfo> >::operator++
PUBLIC	?_Compat@?$_Deque_const_iterator@VErrorInfo@Reader@Json@@V?$allocator@VErrorInfo@Reader@Json@@@std@@@std@@QBEXABV12@@Z ; std::_Deque_const_iterator<Json::Reader::ErrorInfo,std::allocator<Json::Reader::ErrorInfo> >::_Compat
PUBLIC	??8?$_Deque_const_iterator@VErrorInfo@Reader@Json@@V?$allocator@VErrorInfo@Reader@Json@@@std@@@std@@QBE_NABV01@@Z ; std::_Deque_const_iterator<Json::Reader::ErrorInfo,std::allocator<Json::Reader::ErrorInfo> >::operator==
PUBLIC	??9?$_Deque_const_iterator@VErrorInfo@Reader@Json@@V?$allocator@VErrorInfo@Reader@Json@@@std@@@std@@QBE_NABV01@@Z ; std::_Deque_const_iterator<Json::Reader::ErrorInfo,std::allocator<Json::Reader::ErrorInfo> >::operator!=
PUBLIC	??1_Iterator_base12@std@@QAE@XZ			; std::_Iterator_base12::~_Iterator_base12
PUBLIC	??1?$_Deque_const_iterator@VErrorInfo@Reader@Json@@V?$allocator@VErrorInfo@Reader@Json@@@std@@@std@@QAE@XZ ; std::_Deque_const_iterator<Json::Reader::ErrorInfo,std::allocator<Json::Reader::ErrorInfo> >::~_Deque_const_iterator<Json::Reader::ErrorInfo,std::allocator<Json::Reader::ErrorInfo> >
PUBLIC	?_Myptr@?$basic_string@DU?$char_traits@D@std@@V?$allocator@D@2@@std@@QBEPBDXZ ; std::basic_string<char,std::char_traits<char>,std::allocator<char> >::_Myptr
PUBLIC	?c_str@?$basic_string@DU?$char_traits@D@std@@V?$allocator@D@2@@std@@QBEPBDXZ ; std::basic_string<char,std::char_traits<char>,std::allocator<char> >::c_str
PUBLIC	??0runtime_error@std@@QAE@ABV?$basic_string@DU?$char_traits@D@std@@V?$allocator@D@2@@1@@Z ; std::runtime_error::runtime_error
PUBLIC	??1runtime_error@std@@UAE@XZ			; std::runtime_error::~runtime_error
PUBLIC	??_Gruntime_error@std@@UAEPAXI@Z		; std::runtime_error::`scalar deleting destructor'
PUBLIC	??0runtime_error@std@@QAE@ABV01@@Z		; std::runtime_error::runtime_error
PUBLIC	??$?0PAVValue@Json@@@?$allocator@U_Container_proxy@std@@@std@@QAE@ABV?$allocator@PAVValue@Json@@@1@@Z ; std::allocator<std::_Container_proxy>::allocator<std::_Container_proxy><Json::Value *>
PUBLIC	??1?$_Deque_val@PAVValue@Json@@V?$allocator@PAVValue@Json@@@std@@@std@@QAE@XZ ; std::_Deque_val<Json::Value *,std::allocator<Json::Value *> >::~_Deque_val<Json::Value *,std::allocator<Json::Value *> >
PUBLIC	?deallocate@?$allocator@PAVValue@Json@@@std@@QAEXPAPAVValue@Json@@I@Z ; std::allocator<Json::Value *>::deallocate
PUBLIC	?deallocate@?$allocator@PAPAVValue@Json@@@std@@QAEXPAPAPAVValue@Json@@I@Z ; std::allocator<Json::Value * *>::deallocate
PUBLIC	?empty@?$deque@PAVValue@Json@@V?$allocator@PAVValue@Json@@@std@@@std@@QBE_NXZ ; std::deque<Json::Value *,std::allocator<Json::Value *> >::empty
PUBLIC	??$_Destroy@PAVValue@Json@@@std@@YAXPAPAVValue@Json@@@Z ; std::_Destroy<Json::Value *>
PUBLIC	?destroy@?$allocator@PAVValue@Json@@@std@@QAEXPAPAVValue@Json@@@Z ; std::allocator<Json::Value *>::destroy
PUBLIC	??$_Dest_val@V?$allocator@PAVValue@Json@@@std@@PAVValue@Json@@@std@@YAXAAV?$allocator@PAVValue@Json@@@0@PAPAVValue@Json@@@Z ; std::_Dest_val<std::allocator<Json::Value *>,Json::Value *>
PUBLIC	?pop_back@?$deque@PAVValue@Json@@V?$allocator@PAVValue@Json@@@std@@@std@@QAEXXZ ; std::deque<Json::Value *,std::allocator<Json::Value *> >::pop_back
PUBLIC	??$_Destroy@PAPAVValue@Json@@@std@@YAXPAPAPAVValue@Json@@@Z ; std::_Destroy<Json::Value * *>
PUBLIC	?destroy@?$allocator@PAPAVValue@Json@@@std@@QAEXPAPAPAVValue@Json@@@Z ; std::allocator<Json::Value * *>::destroy
PUBLIC	??$_Dest_val@V?$allocator@PAPAVValue@Json@@@std@@PAPAVValue@Json@@@std@@YAXAAV?$allocator@PAPAVValue@Json@@@0@PAPAPAVValue@Json@@@Z ; std::_Dest_val<std::allocator<Json::Value * *>,Json::Value * *>
PUBLIC	?_Tidy@?$deque@PAVValue@Json@@V?$allocator@PAVValue@Json@@@std@@@std@@IAEXXZ ; std::deque<Json::Value *,std::allocator<Json::Value *> >::_Tidy
PUBLIC	??1?$deque@PAVValue@Json@@V?$allocator@PAVValue@Json@@@std@@@std@@QAE@XZ ; std::deque<Json::Value *,std::allocator<Json::Value *> >::~deque<Json::Value *,std::allocator<Json::Value *> >
PUBLIC	??1?$stack@PAVValue@Json@@V?$deque@PAVValue@Json@@V?$allocator@PAVValue@Json@@@std@@@std@@@std@@QAE@XZ ; std::stack<Json::Value *,std::deque<Json::Value *,std::allocator<Json::Value *> > >::~stack<Json::Value *,std::deque<Json::Value *,std::allocator<Json::Value *> > >
PUBLIC	??1_Container_base12@std@@QAE@XZ		; std::_Container_base12::~_Container_base12
PUBLIC	?_Orphan_all@_Container_base12@std@@QAEXXZ	; std::_Container_base12::_Orphan_all
PUBLIC	?deallocate@?$allocator@U_Container_proxy@std@@@std@@QAEXPAU_Container_proxy@2@I@Z ; std::allocator<std::_Container_proxy>::deallocate
PUBLIC	??$_Destroy@U_Container_proxy@std@@@std@@YAXPAU_Container_proxy@0@@Z ; std::_Destroy<std::_Container_proxy>
PUBLIC	?destroy@?$allocator@U_Container_proxy@std@@@std@@QAEXPAU_Container_proxy@2@@Z ; std::allocator<std::_Container_proxy>::destroy
PUBLIC	??$_Dest_val@V?$allocator@U_Container_proxy@std@@@std@@U_Container_proxy@2@@std@@YAXAAV?$allocator@U_Container_proxy@std@@@0@PAU_Container_proxy@0@@Z ; std::_Dest_val<std::allocator<std::_Container_proxy>,std::_Container_proxy>
PUBLIC	??$?0VErrorInfo@Reader@Json@@@?$allocator@U_Container_proxy@std@@@std@@QAE@ABV?$allocator@VErrorInfo@Reader@Json@@@1@@Z ; std::allocator<std::_Container_proxy>::allocator<std::_Container_proxy><Json::Reader::ErrorInfo>
PUBLIC	??1?$_Deque_val@VErrorInfo@Reader@Json@@V?$allocator@VErrorInfo@Reader@Json@@@std@@@std@@QAE@XZ ; std::_Deque_val<Json::Reader::ErrorInfo,std::allocator<Json::Reader::ErrorInfo> >::~_Deque_val<Json::Reader::ErrorInfo,std::allocator<Json::Reader::ErrorInfo> >
PUBLIC	?deallocate@?$allocator@VErrorInfo@Reader@Json@@@std@@QAEXPAVErrorInfo@Reader@Json@@I@Z ; std::allocator<Json::Reader::ErrorInfo>::deallocate
PUBLIC	?deallocate@?$allocator@PAVErrorInfo@Reader@Json@@@std@@QAEXPAPAVErrorInfo@Reader@Json@@I@Z ; std::allocator<Json::Reader::ErrorInfo *>::deallocate
PUBLIC	?empty@?$deque@VErrorInfo@Reader@Json@@V?$allocator@VErrorInfo@Reader@Json@@@std@@@std@@QBE_NXZ ; std::deque<Json::Reader::ErrorInfo,std::allocator<Json::Reader::ErrorInfo> >::empty
PUBLIC	??1?$_String_val@DV?$allocator@D@std@@@std@@QAE@XZ ; std::_String_val<char,std::allocator<char> >::~_String_val<char,std::allocator<char> >
PUBLIC	?copy@?$char_traits@D@std@@SAPADPADPBDI@Z	; std::char_traits<char>::copy
PUBLIC	?deallocate@?$allocator@D@std@@QAEXPADI@Z	; std::allocator<char>::deallocate
PUBLIC	?assign@?$char_traits@D@std@@SAXAADABD@Z	; std::char_traits<char>::assign
PUBLIC	?_Myptr@?$basic_string@DU?$char_traits@D@std@@V?$allocator@D@2@@std@@QAEPADXZ ; std::basic_string<char,std::char_traits<char>,std::allocator<char> >::_Myptr
PUBLIC	?_Eos@?$basic_string@DU?$char_traits@D@std@@V?$allocator@D@2@@std@@QAEXI@Z ; std::basic_string<char,std::char_traits<char>,std::allocator<char> >::_Eos
PUBLIC	?_Tidy@?$basic_string@DU?$char_traits@D@std@@V?$allocator@D@2@@std@@QAEX_NI@Z ; std::basic_string<char,std::char_traits<char>,std::allocator<char> >::_Tidy
PUBLIC	??1?$basic_string@DU?$char_traits@D@std@@V?$allocator@D@2@@std@@QAE@XZ ; std::basic_string<char,std::char_traits<char>,std::allocator<char> >::~basic_string<char,std::char_traits<char>,std::allocator<char> >
PUBLIC	??1ErrorInfo@Reader@Json@@QAE@XZ		; Json::Reader::ErrorInfo::~ErrorInfo
PUBLIC	??_GErrorInfo@Reader@Json@@QAEPAXI@Z		; Json::Reader::ErrorInfo::`scalar deleting destructor'
PUBLIC	??$_Destroy@VErrorInfo@Reader@Json@@@std@@YAXPAVErrorInfo@Reader@Json@@@Z ; std::_Destroy<Json::Reader::ErrorInfo>
PUBLIC	?destroy@?$allocator@VErrorInfo@Reader@Json@@@std@@QAEXPAVErrorInfo@Reader@Json@@@Z ; std::allocator<Json::Reader::ErrorInfo>::destroy
PUBLIC	??$_Dest_val@V?$allocator@VErrorInfo@Reader@Json@@@std@@VErrorInfo@Reader@Json@@@std@@YAXAAV?$allocator@VErrorInfo@Reader@Json@@@0@PAVErrorInfo@Reader@Json@@@Z ; std::_Dest_val<std::allocator<Json::Reader::ErrorInfo>,Json::Reader::ErrorInfo>
PUBLIC	?pop_back@?$deque@VErrorInfo@Reader@Json@@V?$allocator@VErrorInfo@Reader@Json@@@std@@@std@@QAEXXZ ; std::deque<Json::Reader::ErrorInfo,std::allocator<Json::Reader::ErrorInfo> >::pop_back
PUBLIC	??$_Destroy@PAVErrorInfo@Reader@Json@@@std@@YAXPAPAVErrorInfo@Reader@Json@@@Z ; std::_Destroy<Json::Reader::ErrorInfo *>
PUBLIC	?destroy@?$allocator@PAVErrorInfo@Reader@Json@@@std@@QAEXPAPAVErrorInfo@Reader@Json@@@Z ; std::allocator<Json::Reader::ErrorInfo *>::destroy
PUBLIC	??$_Dest_val@V?$allocator@PAVErrorInfo@Reader@Json@@@std@@PAVErrorInfo@Reader@Json@@@std@@YAXAAV?$allocator@PAVErrorInfo@Reader@Json@@@0@PAPAVErrorInfo@Reader@Json@@@Z ; std::_Dest_val<std::allocator<Json::Reader::ErrorInfo *>,Json::Reader::ErrorInfo *>
PUBLIC	?_Tidy@?$deque@VErrorInfo@Reader@Json@@V?$allocator@VErrorInfo@Reader@Json@@@std@@@std@@IAEXXZ ; std::deque<Json::Reader::ErrorInfo,std::allocator<Json::Reader::ErrorInfo> >::_Tidy
PUBLIC	??1?$deque@VErrorInfo@Reader@Json@@V?$allocator@VErrorInfo@Reader@Json@@@std@@@std@@QAE@XZ ; std::deque<Json::Reader::ErrorInfo,std::allocator<Json::Reader::ErrorInfo> >::~deque<Json::Reader::ErrorInfo,std::allocator<Json::Reader::ErrorInfo> >
PUBLIC	??1Reader@Json@@QAE@XZ				; Json::Reader::~Reader
PUBLIC	?has_denorm@_Num_base@std@@2W4float_denorm_style@2@B ; std::_Num_base::has_denorm
PUBLIC	?has_denorm_loss@_Num_base@std@@2_NB		; std::_Num_base::has_denorm_loss
PUBLIC	?has_infinity@_Num_base@std@@2_NB		; std::_Num_base::has_infinity
PUBLIC	?has_quiet_NaN@_Num_base@std@@2_NB		; std::_Num_base::has_quiet_NaN
PUBLIC	?has_signaling_NaN@_Num_base@std@@2_NB		; std::_Num_base::has_signaling_NaN
PUBLIC	?is_bounded@_Num_base@std@@2_NB			; std::_Num_base::is_bounded
PUBLIC	?is_exact@_Num_base@std@@2_NB			; std::_Num_base::is_exact
PUBLIC	?is_iec559@_Num_base@std@@2_NB			; std::_Num_base::is_iec559
PUBLIC	?is_integer@_Num_base@std@@2_NB			; std::_Num_base::is_integer
PUBLIC	?is_modulo@_Num_base@std@@2_NB			; std::_Num_base::is_modulo
PUBLIC	?is_signed@_Num_base@std@@2_NB			; std::_Num_base::is_signed
PUBLIC	?is_specialized@_Num_base@std@@2_NB		; std::_Num_base::is_specialized
PUBLIC	?tinyness_before@_Num_base@std@@2_NB		; std::_Num_base::tinyness_before
PUBLIC	?traps@_Num_base@std@@2_NB			; std::_Num_base::traps
PUBLIC	?round_style@_Num_base@std@@2W4float_round_style@2@B ; std::_Num_base::round_style
PUBLIC	?digits@_Num_base@std@@2HB			; std::_Num_base::digits
PUBLIC	?digits10@_Num_base@std@@2HB			; std::_Num_base::digits10
PUBLIC	?max_digits10@_Num_base@std@@2HB		; std::_Num_base::max_digits10
PUBLIC	?max_exponent@_Num_base@std@@2HB		; std::_Num_base::max_exponent
PUBLIC	?max_exponent10@_Num_base@std@@2HB		; std::_Num_base::max_exponent10
PUBLIC	?min_exponent@_Num_base@std@@2HB		; std::_Num_base::min_exponent
PUBLIC	?min_exponent10@_Num_base@std@@2HB		; std::_Num_base::min_exponent10
PUBLIC	?radix@_Num_base@std@@2HB			; std::_Num_base::radix
PUBLIC	?is_bounded@_Num_int_base@std@@2_NB		; std::_Num_int_base::is_bounded
PUBLIC	?is_exact@_Num_int_base@std@@2_NB		; std::_Num_int_base::is_exact
PUBLIC	?is_integer@_Num_int_base@std@@2_NB		; std::_Num_int_base::is_integer
PUBLIC	?is_modulo@_Num_int_base@std@@2_NB		; std::_Num_int_base::is_modulo
PUBLIC	?is_specialized@_Num_int_base@std@@2_NB		; std::_Num_int_base::is_specialized
PUBLIC	?radix@_Num_int_base@std@@2HB			; std::_Num_int_base::radix
PUBLIC	?has_denorm@_Num_float_base@std@@2W4float_denorm_style@2@B ; std::_Num_float_base::has_denorm
PUBLIC	?has_denorm_loss@_Num_float_base@std@@2_NB	; std::_Num_float_base::has_denorm_loss
PUBLIC	?has_infinity@_Num_float_base@std@@2_NB		; std::_Num_float_base::has_infinity
PUBLIC	?has_quiet_NaN@_Num_float_base@std@@2_NB	; std::_Num_float_base::has_quiet_NaN
PUBLIC	?has_signaling_NaN@_Num_float_base@std@@2_NB	; std::_Num_float_base::has_signaling_NaN
PUBLIC	?is_bounded@_Num_float_base@std@@2_NB		; std::_Num_float_base::is_bounded
PUBLIC	?is_exact@_Num_float_base@std@@2_NB		; std::_Num_float_base::is_exact
PUBLIC	?is_iec559@_Num_float_base@std@@2_NB		; std::_Num_float_base::is_iec559
PUBLIC	?is_integer@_Num_float_base@std@@2_NB		; std::_Num_float_base::is_integer
PUBLIC	?is_modulo@_Num_float_base@std@@2_NB		; std::_Num_float_base::is_modulo
PUBLIC	?is_signed@_Num_float_base@std@@2_NB		; std::_Num_float_base::is_signed
PUBLIC	?is_specialized@_Num_float_base@std@@2_NB	; std::_Num_float_base::is_specialized
PUBLIC	?tinyness_before@_Num_float_base@std@@2_NB	; std::_Num_float_base::tinyness_before
PUBLIC	?traps@_Num_float_base@std@@2_NB		; std::_Num_float_base::traps
PUBLIC	?round_style@_Num_float_base@std@@2W4float_round_style@2@B ; std::_Num_float_base::round_style
PUBLIC	?radix@_Num_float_base@std@@2HB			; std::_Num_float_base::radix
PUBLIC	?is_signed@?$numeric_limits@D@std@@2_NB		; std::numeric_limits<char>::is_signed
PUBLIC	?digits@?$numeric_limits@D@std@@2HB		; std::numeric_limits<char>::digits
PUBLIC	?digits10@?$numeric_limits@D@std@@2HB		; std::numeric_limits<char>::digits10
PUBLIC	?max_digits10@?$numeric_limits@D@std@@2HB	; std::numeric_limits<char>::max_digits10
PUBLIC	?is_signed@?$numeric_limits@_W@std@@2_NB	; std::numeric_limits<wchar_t>::is_signed
PUBLIC	?digits@?$numeric_limits@_W@std@@2HB		; std::numeric_limits<wchar_t>::digits
PUBLIC	?digits10@?$numeric_limits@_W@std@@2HB		; std::numeric_limits<wchar_t>::digits10
PUBLIC	?max_digits10@?$numeric_limits@_W@std@@2HB	; std::numeric_limits<wchar_t>::max_digits10
PUBLIC	?is_modulo@?$numeric_limits@_N@std@@2_NB	; std::numeric_limits<bool>::is_modulo
PUBLIC	?is_signed@?$numeric_limits@_N@std@@2_NB	; std::numeric_limits<bool>::is_signed
PUBLIC	?digits@?$numeric_limits@_N@std@@2HB		; std::numeric_limits<bool>::digits
PUBLIC	?digits10@?$numeric_limits@_N@std@@2HB		; std::numeric_limits<bool>::digits10
PUBLIC	?max_digits10@?$numeric_limits@_N@std@@2HB	; std::numeric_limits<bool>::max_digits10
PUBLIC	?is_signed@?$numeric_limits@C@std@@2_NB		; std::numeric_limits<signed char>::is_signed
PUBLIC	?digits@?$numeric_limits@C@std@@2HB		; std::numeric_limits<signed char>::digits
PUBLIC	?digits10@?$numeric_limits@C@std@@2HB		; std::numeric_limits<signed char>::digits10
PUBLIC	?max_digits10@?$numeric_limits@C@std@@2HB	; std::numeric_limits<signed char>::max_digits10
PUBLIC	?is_signed@?$numeric_limits@E@std@@2_NB		; std::numeric_limits<unsigned char>::is_signed
PUBLIC	?digits@?$numeric_limits@E@std@@2HB		; std::numeric_limits<unsigned char>::digits
PUBLIC	?digits10@?$numeric_limits@E@std@@2HB		; std::numeric_limits<unsigned char>::digits10
PUBLIC	?max_digits10@?$numeric_limits@E@std@@2HB	; std::numeric_limits<unsigned char>::max_digits10
PUBLIC	?is_signed@?$numeric_limits@F@std@@2_NB		; std::numeric_limits<short>::is_signed
PUBLIC	?digits@?$numeric_limits@F@std@@2HB		; std::numeric_limits<short>::digits
PUBLIC	?digits10@?$numeric_limits@F@std@@2HB		; std::numeric_limits<short>::digits10
PUBLIC	?max_digits10@?$numeric_limits@F@std@@2HB	; std::numeric_limits<short>::max_digits10
PUBLIC	?is_signed@?$numeric_limits@G@std@@2_NB		; std::numeric_limits<unsigned short>::is_signed
PUBLIC	?digits@?$numeric_limits@G@std@@2HB		; std::numeric_limits<unsigned short>::digits
PUBLIC	?digits10@?$numeric_limits@G@std@@2HB		; std::numeric_limits<unsigned short>::digits10
PUBLIC	?max_digits10@?$numeric_limits@G@std@@2HB	; std::numeric_limits<unsigned short>::max_digits10
PUBLIC	?is_signed@?$numeric_limits@H@std@@2_NB		; std::numeric_limits<int>::is_signed
PUBLIC	?digits@?$numeric_limits@H@std@@2HB		; std::numeric_limits<int>::digits
PUBLIC	?digits10@?$numeric_limits@H@std@@2HB		; std::numeric_limits<int>::digits10
PUBLIC	?max_digits10@?$numeric_limits@H@std@@2HB	; std::numeric_limits<int>::max_digits10
PUBLIC	?is_signed@?$numeric_limits@I@std@@2_NB		; std::numeric_limits<unsigned int>::is_signed
PUBLIC	?digits@?$numeric_limits@I@std@@2HB		; std::numeric_limits<unsigned int>::digits
PUBLIC	?digits10@?$numeric_limits@I@std@@2HB		; std::numeric_limits<unsigned int>::digits10
PUBLIC	?max_digits10@?$numeric_limits@I@std@@2HB	; std::numeric_limits<unsigned int>::max_digits10
PUBLIC	?is_signed@?$numeric_limits@J@std@@2_NB		; std::numeric_limits<long>::is_signed
PUBLIC	?digits@?$numeric_limits@J@std@@2HB		; std::numeric_limits<long>::digits
PUBLIC	?digits10@?$numeric_limits@J@std@@2HB		; std::numeric_limits<long>::digits10
PUBLIC	?max_digits10@?$numeric_limits@J@std@@2HB	; std::numeric_limits<long>::max_digits10
PUBLIC	?is_signed@?$numeric_limits@K@std@@2_NB		; std::numeric_limits<unsigned long>::is_signed
PUBLIC	?digits@?$numeric_limits@K@std@@2HB		; std::numeric_limits<unsigned long>::digits
PUBLIC	?digits10@?$numeric_limits@K@std@@2HB		; std::numeric_limits<unsigned long>::digits10
PUBLIC	?max_digits10@?$numeric_limits@K@std@@2HB	; std::numeric_limits<unsigned long>::max_digits10
PUBLIC	?is_signed@?$numeric_limits@_J@std@@2_NB	; std::numeric_limits<__int64>::is_signed
PUBLIC	?digits@?$numeric_limits@_J@std@@2HB		; std::numeric_limits<__int64>::digits
PUBLIC	?digits10@?$numeric_limits@_J@std@@2HB		; std::numeric_limits<__int64>::digits10
PUBLIC	?max_digits10@?$numeric_limits@_J@std@@2HB	; std::numeric_limits<__int64>::max_digits10
PUBLIC	?is_signed@?$numeric_limits@_K@std@@2_NB	; std::numeric_limits<unsigned __int64>::is_signed
PUBLIC	?digits@?$numeric_limits@_K@std@@2HB		; std::numeric_limits<unsigned __int64>::digits
PUBLIC	?digits10@?$numeric_limits@_K@std@@2HB		; std::numeric_limits<unsigned __int64>::digits10
PUBLIC	?max_digits10@?$numeric_limits@_K@std@@2HB	; std::numeric_limits<unsigned __int64>::max_digits10
PUBLIC	?digits@?$numeric_limits@M@std@@2HB		; std::numeric_limits<float>::digits
PUBLIC	?digits10@?$numeric_limits@M@std@@2HB		; std::numeric_limits<float>::digits10
PUBLIC	?max_digits10@?$numeric_limits@M@std@@2HB	; std::numeric_limits<float>::max_digits10
PUBLIC	?max_exponent@?$numeric_limits@M@std@@2HB	; std::numeric_limits<float>::max_exponent
PUBLIC	?max_exponent10@?$numeric_limits@M@std@@2HB	; std::numeric_limits<float>::max_exponent10
PUBLIC	?min_exponent@?$numeric_limits@M@std@@2HB	; std::numeric_limits<float>::min_exponent
PUBLIC	?min_exponent10@?$numeric_limits@M@std@@2HB	; std::numeric_limits<float>::min_exponent10
PUBLIC	?digits@?$numeric_limits@N@std@@2HB		; std::numeric_limits<double>::digits
PUBLIC	?digits10@?$numeric_limits@N@std@@2HB		; std::numeric_limits<double>::digits10
PUBLIC	?max_digits10@?$numeric_limits@N@std@@2HB	; std::numeric_limits<double>::max_digits10
PUBLIC	?max_exponent@?$numeric_limits@N@std@@2HB	; std::numeric_limits<double>::max_exponent
PUBLIC	?max_exponent10@?$numeric_limits@N@std@@2HB	; std::numeric_limits<double>::max_exponent10
PUBLIC	?min_exponent@?$numeric_limits@N@std@@2HB	; std::numeric_limits<double>::min_exponent
PUBLIC	?min_exponent10@?$numeric_limits@N@std@@2HB	; std::numeric_limits<double>::min_exponent10
PUBLIC	?digits@?$numeric_limits@O@std@@2HB		; std::numeric_limits<long double>::digits
PUBLIC	?digits10@?$numeric_limits@O@std@@2HB		; std::numeric_limits<long double>::digits10
PUBLIC	?max_digits10@?$numeric_limits@O@std@@2HB	; std::numeric_limits<long double>::max_digits10
PUBLIC	?max_exponent@?$numeric_limits@O@std@@2HB	; std::numeric_limits<long double>::max_exponent
PUBLIC	?max_exponent10@?$numeric_limits@O@std@@2HB	; std::numeric_limits<long double>::max_exponent10
PUBLIC	?min_exponent@?$numeric_limits@O@std@@2HB	; std::numeric_limits<long double>::min_exponent
PUBLIC	?min_exponent10@?$numeric_limits@O@std@@2HB	; std::numeric_limits<long double>::min_exponent10
PUBLIC	??_C@_0BA@ELKIONDK@bad?5locale?5name?$AA@	; `string'
PUBLIC	??_R0?AVruntime_error@std@@@8			; std::runtime_error `RTTI Type Descriptor'
PUBLIC	??_R0?AVexception@std@@@8			; std::exception `RTTI Type Descriptor'
PUBLIC	__CT??_R0?AVruntime_error@std@@@8??0runtime_error@std@@QAE@ABV01@@Z12
PUBLIC	__CT??_R0?AVexception@std@@@8??0exception@std@@QAE@ABV01@@Z12
PUBLIC	__CTA2?AVruntime_error@std@@
PUBLIC	__TI2?AVruntime_error@std@@
PUBLIC	??_C@_0BF@PHHKMMFD@ios_base?3?3badbit?5set?$AA@	; `string'
PUBLIC	??_C@_0BG@FMKFHCIL@ios_base?3?3failbit?5set?$AA@ ; `string'
PUBLIC	??_C@_0BF@OOHOMBOF@ios_base?3?3eofbit?5set?$AA@	; `string'
PUBLIC	??_R0?AVfailure@ios_base@std@@@8		; std::ios_base::failure `RTTI Type Descriptor'
PUBLIC	??_R0?AVsystem_error@std@@@8			; std::system_error `RTTI Type Descriptor'
PUBLIC	__CT??_R0?AVfailure@ios_base@std@@@8??0failure@ios_base@std@@QAE@ABV012@@Z20
PUBLIC	__CT??_R0?AVsystem_error@std@@@8??0system_error@std@@QAE@ABV01@@Z20
PUBLIC	__CTA4?AVfailure@ios_base@std@@
PUBLIC	__TI4?AVfailure@ios_base@std@@
PUBLIC	??_C@_00CNPNBAHC@?$AA@				; `string'
PUBLIC	??_C@_0EC@HCHNIDLM@A?5valid?5JSON?5document?5must?5be?5ei@ ; `string'
PUBLIC	??_C@_0CP@GDDNKEK@Syntax?5error?3?5value?0?5object?5or?5a@ ; `string'
PUBLIC	??_C@_03FFDNHNKN@rue?$AA@			; `string'
PUBLIC	??_C@_04KCECFHEP@alse?$AA@			; `string'
PUBLIC	??_C@_03KNPGGKC@ull?$AA@			; `string'
PUBLIC	??_C@_01EEMJAFIK@?6?$AA@			; `string'
PUBLIC	??_C@_0CF@GCCDMCPH@Missing?5?8?3?8?5after?5object?5member?5@ ; `string'
PUBLIC	??_C@_0CJ@NGKOAFKA@Missing?5?8?0?8?5or?5?8?$HN?8?5in?5object?5dec@ ; `string'
PUBLIC	??_C@_0CC@JNCGHFHN@Missing?5?8?$HN?8?5or?5object?5member?5nam@ ; `string'
PUBLIC	??_C@_0CI@DPCANLPO@Missing?5?8?0?8?5or?5?8?$FN?8?5in?5array?5decl@ ; `string'
PUBLIC	??_C@_0BD@HHNBFDKF@?8?5is?5not?5a?5number?4?$AA@ ; `string'
PUBLIC	??_C@_01GEODFPGF@?8?$AA@			; `string'
PUBLIC	??_C@_03DLDNIBIK@?$CFlf?$AA@			; `string'
PUBLIC	??_C@_0CA@DPGKPPOE@Empty?5escape?5sequence?5in?5string?$AA@ ; `string'
PUBLIC	??_C@_0BO@NDEEJNNB@Bad?5escape?5sequence?5in?5string?$AA@ ; `string'
PUBLIC	??_C@_0EE@LMPEHADE@additional?5six?5characters?5expect@ ; `string'
PUBLIC	??_C@_0FA@BGMMPLKB@expecting?5another?5?2u?5token?5to?5be@ ; `string'
PUBLIC	??_C@_0DN@BPAHJPFJ@Bad?5unicode?5escape?5sequence?5in?5s@ ; `string'
PUBLIC	??_C@_0ED@FIDDECIG@Bad?5unicode?5escape?5sequence?5in?5s@ ; `string'
PUBLIC	??_C@_0BD@LAMGIMLG@Line?5?$CFd?0?5Column?5?$CFd?$AA@ ; `string'
PUBLIC	??_C@_02KAOAMBHJ@?$CK?5?$AA@			; `string'
PUBLIC	??_C@_02KNHHEEKP@?5?5?$AA@			; `string'
PUBLIC	??_C@_0O@JBAGGIKP@?5for?5detail?4?6?$AA@	; `string'
PUBLIC	??_C@_04JBAOJHKB@See?5?$AA@			; `string'
PUBLIC	??_C@_0BA@JFNIOLAK@string?5too?5long?$AA@	; `string'
PUBLIC	??_C@_0BI@CFPLBAOH@invalid?5string?5position?$AA@ ; `string'
PUBLIC	??_C@_0BC@KBDMBKEH@deque?$DMT?$DO?5too?5long?$AA@ ; `string'
PUBLIC	?npos@?$basic_string@DU?$char_traits@D@std@@V?$allocator@D@2@@std@@2IB ; std::basic_string<char,std::char_traits<char>,std::allocator<char> >::npos
PUBLIC	??_C@_08EPJLHIJG@bad?5cast?$AA@			; `string'
PUBLIC	??_R0?AVbad_cast@std@@@8			; std::bad_cast `RTTI Type Descriptor'
PUBLIC	__CT??_R0?AVbad_cast@std@@@8??0bad_cast@std@@QAE@ABV01@@Z12
PUBLIC	__CTA2?AVbad_cast@std@@
PUBLIC	__TI2?AVbad_cast@std@@
PUBLIC	??_R0?AVbad_alloc@std@@@8			; std::bad_alloc `RTTI Type Descriptor'
PUBLIC	__CT??_R0?AVbad_alloc@std@@@8??0bad_alloc@std@@QAE@ABV01@@Z12
PUBLIC	__CTA2?AVbad_alloc@std@@
PUBLIC	__TI2?AVbad_alloc@std@@
PUBLIC	?_Psave@?$_Facetptr@V?$ctype@D@std@@@std@@2PBVfacet@locale@2@B ; std::_Facetptr<std::ctype<char> >::_Psave
PUBLIC	??_7bad_alloc@std@@6B@				; std::bad_alloc::`vftable'
PUBLIC	??_7runtime_error@std@@6B@			; std::runtime_error::`vftable'
PUBLIC	??_7facet@locale@std@@6B@			; std::locale::facet::`vftable'
PUBLIC	??_7ctype_base@std@@6B@				; std::ctype_base::`vftable'
PUBLIC	??_7?$ctype@D@std@@6B@				; std::ctype<char>::`vftable'
PUBLIC	??_7system_error@std@@6B@			; std::system_error::`vftable'
PUBLIC	??_7failure@ios_base@std@@6B@			; std::ios_base::failure::`vftable'
EXTRN	@__security_check_cookie@4:PROC
EXTRN	??0bad_cast@std@@QAE@PBD@Z:PROC			; std::bad_cast::bad_cast
EXTRN	?_Id_cnt@id@locale@std@@0HA:DWORD		; std::locale::id::_Id_cnt
EXTRN	?_Facet_Register@facet@locale@std@@CAXPAV123@@Z:PROC ; std::locale::facet::_Facet_Register
EXTRN	?_Getgloballocale@locale@std@@CAPAV_Locimp@12@XZ:PROC ; std::locale::_Getgloballocale
EXTRN	?id@?$ctype@D@std@@2V0locale@2@A:DWORD		; std::ctype<char>::id
EXTRN	?_Locinfo_ctor@_Locinfo@std@@SAXPAV12@PBD@Z:PROC ; std::_Locinfo::_Locinfo_ctor
EXTRN	?_Locinfo_dtor@_Locinfo@std@@SAXPAV12@@Z:PROC	; std::_Locinfo::_Locinfo_dtor
EXTRN	__Getctype:PROC
EXTRN	__Tolower:PROC
EXTRN	__Toupper:PROC
EXTRN	??_Efacet@locale@std@@UAEPAXI@Z:PROC		; std::locale::facet::`vector deleting destructor'
EXTRN	??_Ectype_base@std@@UAEPAXI@Z:PROC		; std::ctype_base::`vector deleting destructor'
EXTRN	??_V@YAXPAX@Z:PROC				; operator delete[]
EXTRN	_free:PROC
EXTRN	??_E?$ctype@D@std@@MAEPAXI@Z:PROC		; std::ctype<char>::`vector deleting destructor'
EXTRN	??1bad_cast@std@@UAE@XZ:PROC			; std::bad_cast::~bad_cast
EXTRN	??0bad_cast@std@@QAE@ABV01@@Z:PROC		; std::bad_cast::bad_cast
EXTRN	??0_Lockit@std@@QAE@H@Z:PROC			; std::_Lockit::_Lockit
EXTRN	??1_Lockit@std@@QAE@XZ:PROC			; std::_Lockit::~_Lockit
EXTRN	?iostream_category@std@@YAABVerror_category@1@XZ:PROC ; std::iostream_category
EXTRN	??_Efailure@ios_base@std@@UAEPAXI@Z:PROC	; std::ios_base::failure::`vector deleting destructor'
EXTRN	??_Esystem_error@std@@UAEPAXI@Z:PROC		; std::system_error::`vector deleting destructor'
EXTRN	_sscanf:PROC
EXTRN	_sprintf:PROC
EXTRN	_memmove:PROC
EXTRN	?_Xout_of_range@std@@YAXPBD@Z:PROC		; std::_Xout_of_range
EXTRN	??2@YAPAXI@Z:PROC				; operator new
EXTRN	??_Ebad_alloc@std@@UAEPAXI@Z:PROC		; std::bad_alloc::`vector deleting destructor'
EXTRN	?_Xlength_error@std@@YAXPBD@Z:PROC		; std::_Xlength_error
EXTRN	??0exception@std@@QAE@ABQBD@Z:PROC		; std::exception::exception
EXTRN	?what@exception@std@@UBEPBDXZ:PROC		; std::exception::what
EXTRN	??1exception@std@@UAE@XZ:PROC			; std::exception::~exception
EXTRN	??_Eruntime_error@std@@UAEPAXI@Z:PROC		; std::runtime_error::`vector deleting destructor'
EXTRN	??0exception@std@@QAE@ABV01@@Z:PROC		; std::exception::exception
EXTRN	??_7type_info@@6B@:QWORD			; type_info::`vftable'
EXTRN	??3@YAXPAX@Z:PROC				; operator delete
;	COMDAT ?_Psave@?$_Facetptr@V?$ctype@D@std@@@std@@2PBVfacet@locale@2@B
_BSS	SEGMENT
?_Psave@?$_Facetptr@V?$ctype@D@std@@@std@@2PBVfacet@locale@2@B DD 01H DUP (?) ; std::_Facetptr<std::ctype<char> >::_Psave
;	COMDAT ??_7failure@ios_base@std@@6B@
CONST	SEGMENT
??_7failure@ios_base@std@@6B@ DD FLAT:??_R4failure@ios_base@std@@6B@ ; std::ios_base::failure::`vftable'
	DD	FLAT:??_Efailure@ios_base@std@@UAEPAXI@Z
	DD	FLAT:?what@exception@std@@UBEPBDXZ
CONST	ENDS
;	COMDAT ??_R4failure@ios_base@std@@6B@
rdata$r	SEGMENT
??_R4failure@ios_base@std@@6B@ DD 00H			; std::ios_base::failure::`RTTI Complete Object Locator'
	DD	00H
	DD	00H
	DD	FLAT:??_R0?AVfailure@ios_base@std@@@8
	DD	FLAT:??_R3failure@ios_base@std@@8
rdata$r	ENDS
;	COMDAT ??_R3failure@ios_base@std@@8
rdata$r	SEGMENT
??_R3failure@ios_base@std@@8 DD 00H			; std::ios_base::failure::`RTTI Class Hierarchy Descriptor'
	DD	00H
	DD	04H
	DD	FLAT:??_R2failure@ios_base@std@@8
rdata$r	ENDS
;	COMDAT ??_R2failure@ios_base@std@@8
rdata$r	SEGMENT
??_R2failure@ios_base@std@@8 DD FLAT:??_R1A@?0A@EA@failure@ios_base@std@@8 ; std::ios_base::failure::`RTTI Base Class Array'
	DD	FLAT:??_R1A@?0A@EA@system_error@std@@8
	DD	FLAT:??_R1A@?0A@EA@runtime_error@std@@8
	DD	FLAT:??_R1A@?0A@EA@exception@std@@8
rdata$r	ENDS
;	COMDAT ??_R1A@?0A@EA@failure@ios_base@std@@8
rdata$r	SEGMENT
??_R1A@?0A@EA@failure@ios_base@std@@8 DD FLAT:??_R0?AVfailure@ios_base@std@@@8 ; std::ios_base::failure::`RTTI Base Class Descriptor at (0,-1,0,64)'
	DD	03H
	DD	00H
	DD	0ffffffffH
	DD	00H
	DD	040H
	DD	FLAT:??_R3failure@ios_base@std@@8
rdata$r	ENDS
;	COMDAT ??_7system_error@std@@6B@
CONST	SEGMENT
??_7system_error@std@@6B@ DD FLAT:??_R4system_error@std@@6B@ ; std::system_error::`vftable'
	DD	FLAT:??_Esystem_error@std@@UAEPAXI@Z
	DD	FLAT:?what@exception@std@@UBEPBDXZ
CONST	ENDS
;	COMDAT ??_R4system_error@std@@6B@
rdata$r	SEGMENT
??_R4system_error@std@@6B@ DD 00H			; std::system_error::`RTTI Complete Object Locator'
	DD	00H
	DD	00H
	DD	FLAT:??_R0?AVsystem_error@std@@@8
	DD	FLAT:??_R3system_error@std@@8
rdata$r	ENDS
;	COMDAT ??_R3system_error@std@@8
rdata$r	SEGMENT
??_R3system_error@std@@8 DD 00H				; std::system_error::`RTTI Class Hierarchy Descriptor'
	DD	00H
	DD	03H
	DD	FLAT:??_R2system_error@std@@8
rdata$r	ENDS
;	COMDAT ??_R2system_error@std@@8
rdata$r	SEGMENT
??_R2system_error@std@@8 DD FLAT:??_R1A@?0A@EA@system_error@std@@8 ; std::system_error::`RTTI Base Class Array'
	DD	FLAT:??_R1A@?0A@EA@runtime_error@std@@8
	DD	FLAT:??_R1A@?0A@EA@exception@std@@8
rdata$r	ENDS
;	COMDAT ??_R1A@?0A@EA@system_error@std@@8
rdata$r	SEGMENT
??_R1A@?0A@EA@system_error@std@@8 DD FLAT:??_R0?AVsystem_error@std@@@8 ; std::system_error::`RTTI Base Class Descriptor at (0,-1,0,64)'
	DD	02H
	DD	00H
	DD	0ffffffffH
	DD	00H
	DD	040H
	DD	FLAT:??_R3system_error@std@@8
rdata$r	ENDS
;	COMDAT ??_7?$ctype@D@std@@6B@
CONST	SEGMENT
??_7?$ctype@D@std@@6B@ DD FLAT:??_R4?$ctype@D@std@@6B@	; std::ctype<char>::`vftable'
	DD	FLAT:??_E?$ctype@D@std@@MAEPAXI@Z
	DD	FLAT:?do_tolower@?$ctype@D@std@@MBEPBDPADPBD@Z
	DD	FLAT:?do_tolower@?$ctype@D@std@@MBEDD@Z
	DD	FLAT:?do_toupper@?$ctype@D@std@@MBEPBDPADPBD@Z
	DD	FLAT:?do_toupper@?$ctype@D@std@@MBEDD@Z
	DD	FLAT:?do_widen@?$ctype@D@std@@MBEPBDPBD0PAD@Z
	DD	FLAT:?do_widen@?$ctype@D@std@@MBEDD@Z
	DD	FLAT:?do_narrow@?$ctype@D@std@@MBEPBDPBD0DPAD@Z
	DD	FLAT:?do_narrow@?$ctype@D@std@@MBEDDD@Z
CONST	ENDS
;	COMDAT ??_R4?$ctype@D@std@@6B@
rdata$r	SEGMENT
??_R4?$ctype@D@std@@6B@ DD 00H				; std::ctype<char>::`RTTI Complete Object Locator'
	DD	00H
	DD	00H
	DD	FLAT:??_R0?AV?$ctype@D@std@@@8
	DD	FLAT:??_R3?$ctype@D@std@@8
rdata$r	ENDS
;	COMDAT ??_R3?$ctype@D@std@@8
rdata$r	SEGMENT
??_R3?$ctype@D@std@@8 DD 00H				; std::ctype<char>::`RTTI Class Hierarchy Descriptor'
	DD	00H
	DD	03H
	DD	FLAT:??_R2?$ctype@D@std@@8
rdata$r	ENDS
;	COMDAT ??_R2?$ctype@D@std@@8
rdata$r	SEGMENT
??_R2?$ctype@D@std@@8 DD FLAT:??_R1A@?0A@EA@?$ctype@D@std@@8 ; std::ctype<char>::`RTTI Base Class Array'
	DD	FLAT:??_R1A@?0A@EA@ctype_base@std@@8
	DD	FLAT:??_R1A@?0A@EA@facet@locale@std@@8
rdata$r	ENDS
;	COMDAT ??_R1A@?0A@EA@?$ctype@D@std@@8
rdata$r	SEGMENT
??_R1A@?0A@EA@?$ctype@D@std@@8 DD FLAT:??_R0?AV?$ctype@D@std@@@8 ; std::ctype<char>::`RTTI Base Class Descriptor at (0,-1,0,64)'
	DD	02H
	DD	00H
	DD	0ffffffffH
	DD	00H
	DD	040H
	DD	FLAT:??_R3?$ctype@D@std@@8
rdata$r	ENDS
;	COMDAT ??_R0?AV?$ctype@D@std@@@8
_DATA	SEGMENT
??_R0?AV?$ctype@D@std@@@8 DD FLAT:??_7type_info@@6B@	; std::ctype<char> `RTTI Type Descriptor'
	DD	00H
	DB	'.?AV?$ctype@D@std@@', 00H
_DATA	ENDS
;	COMDAT ??_7ctype_base@std@@6B@
CONST	SEGMENT
??_7ctype_base@std@@6B@ DD FLAT:??_R4ctype_base@std@@6B@ ; std::ctype_base::`vftable'
	DD	FLAT:??_Ectype_base@std@@UAEPAXI@Z
CONST	ENDS
;	COMDAT ??_R4ctype_base@std@@6B@
rdata$r	SEGMENT
??_R4ctype_base@std@@6B@ DD 00H				; std::ctype_base::`RTTI Complete Object Locator'
	DD	00H
	DD	00H
	DD	FLAT:??_R0?AUctype_base@std@@@8
	DD	FLAT:??_R3ctype_base@std@@8
rdata$r	ENDS
;	COMDAT ??_R3ctype_base@std@@8
rdata$r	SEGMENT
??_R3ctype_base@std@@8 DD 00H				; std::ctype_base::`RTTI Class Hierarchy Descriptor'
	DD	00H
	DD	02H
	DD	FLAT:??_R2ctype_base@std@@8
rdata$r	ENDS
;	COMDAT ??_R2ctype_base@std@@8
rdata$r	SEGMENT
??_R2ctype_base@std@@8 DD FLAT:??_R1A@?0A@EA@ctype_base@std@@8 ; std::ctype_base::`RTTI Base Class Array'
	DD	FLAT:??_R1A@?0A@EA@facet@locale@std@@8
rdata$r	ENDS
;	COMDAT ??_R1A@?0A@EA@ctype_base@std@@8
rdata$r	SEGMENT
??_R1A@?0A@EA@ctype_base@std@@8 DD FLAT:??_R0?AUctype_base@std@@@8 ; std::ctype_base::`RTTI Base Class Descriptor at (0,-1,0,64)'
	DD	01H
	DD	00H
	DD	0ffffffffH
	DD	00H
	DD	040H
	DD	FLAT:??_R3ctype_base@std@@8
rdata$r	ENDS
;	COMDAT ??_R0?AUctype_base@std@@@8
_DATA	SEGMENT
??_R0?AUctype_base@std@@@8 DD FLAT:??_7type_info@@6B@	; std::ctype_base `RTTI Type Descriptor'
	DD	00H
	DB	'.?AUctype_base@std@@', 00H
_DATA	ENDS
;	COMDAT ??_7facet@locale@std@@6B@
CONST	SEGMENT
??_7facet@locale@std@@6B@ DD FLAT:??_R4facet@locale@std@@6B@ ; std::locale::facet::`vftable'
	DD	FLAT:??_Efacet@locale@std@@UAEPAXI@Z
CONST	ENDS
;	COMDAT ??_R4facet@locale@std@@6B@
rdata$r	SEGMENT
??_R4facet@locale@std@@6B@ DD 00H			; std::locale::facet::`RTTI Complete Object Locator'
	DD	00H
	DD	00H
	DD	FLAT:??_R0?AVfacet@locale@std@@@8
	DD	FLAT:??_R3facet@locale@std@@8
rdata$r	ENDS
;	COMDAT ??_R3facet@locale@std@@8
rdata$r	SEGMENT
??_R3facet@locale@std@@8 DD 00H				; std::locale::facet::`RTTI Class Hierarchy Descriptor'
	DD	00H
	DD	01H
	DD	FLAT:??_R2facet@locale@std@@8
rdata$r	ENDS
;	COMDAT ??_R2facet@locale@std@@8
rdata$r	SEGMENT
??_R2facet@locale@std@@8 DD FLAT:??_R1A@?0A@EA@facet@locale@std@@8 ; std::locale::facet::`RTTI Base Class Array'
rdata$r	ENDS
;	COMDAT ??_R1A@?0A@EA@facet@locale@std@@8
rdata$r	SEGMENT
??_R1A@?0A@EA@facet@locale@std@@8 DD FLAT:??_R0?AVfacet@locale@std@@@8 ; std::locale::facet::`RTTI Base Class Descriptor at (0,-1,0,64)'
	DD	00H
	DD	00H
	DD	0ffffffffH
	DD	00H
	DD	040H
	DD	FLAT:??_R3facet@locale@std@@8
rdata$r	ENDS
;	COMDAT ??_R0?AVfacet@locale@std@@@8
_DATA	SEGMENT
??_R0?AVfacet@locale@std@@@8 DD FLAT:??_7type_info@@6B@	; std::locale::facet `RTTI Type Descriptor'
	DD	00H
	DB	'.?AVfacet@locale@std@@', 00H
_DATA	ENDS
;	COMDAT ??_7runtime_error@std@@6B@
CONST	SEGMENT
??_7runtime_error@std@@6B@ DD FLAT:??_R4runtime_error@std@@6B@ ; std::runtime_error::`vftable'
	DD	FLAT:??_Eruntime_error@std@@UAEPAXI@Z
	DD	FLAT:?what@exception@std@@UBEPBDXZ
CONST	ENDS
;	COMDAT ??_R4runtime_error@std@@6B@
rdata$r	SEGMENT
??_R4runtime_error@std@@6B@ DD 00H			; std::runtime_error::`RTTI Complete Object Locator'
	DD	00H
	DD	00H
	DD	FLAT:??_R0?AVruntime_error@std@@@8
	DD	FLAT:??_R3runtime_error@std@@8
rdata$r	ENDS
;	COMDAT ??_R3runtime_error@std@@8
rdata$r	SEGMENT
??_R3runtime_error@std@@8 DD 00H			; std::runtime_error::`RTTI Class Hierarchy Descriptor'
	DD	00H
	DD	02H
	DD	FLAT:??_R2runtime_error@std@@8
rdata$r	ENDS
;	COMDAT ??_R2runtime_error@std@@8
rdata$r	SEGMENT
??_R2runtime_error@std@@8 DD FLAT:??_R1A@?0A@EA@runtime_error@std@@8 ; std::runtime_error::`RTTI Base Class Array'
	DD	FLAT:??_R1A@?0A@EA@exception@std@@8
rdata$r	ENDS
;	COMDAT ??_R1A@?0A@EA@runtime_error@std@@8
rdata$r	SEGMENT
??_R1A@?0A@EA@runtime_error@std@@8 DD FLAT:??_R0?AVruntime_error@std@@@8 ; std::runtime_error::`RTTI Base Class Descriptor at (0,-1,0,64)'
	DD	01H
	DD	00H
	DD	0ffffffffH
	DD	00H
	DD	040H
	DD	FLAT:??_R3runtime_error@std@@8
rdata$r	ENDS
;	COMDAT ??_7bad_alloc@std@@6B@
CONST	SEGMENT
??_7bad_alloc@std@@6B@ DD FLAT:??_R4bad_alloc@std@@6B@	; std::bad_alloc::`vftable'
	DD	FLAT:??_Ebad_alloc@std@@UAEPAXI@Z
	DD	FLAT:?what@exception@std@@UBEPBDXZ
CONST	ENDS
;	COMDAT ??_R4bad_alloc@std@@6B@
rdata$r	SEGMENT
??_R4bad_alloc@std@@6B@ DD 00H				; std::bad_alloc::`RTTI Complete Object Locator'
	DD	00H
	DD	00H
	DD	FLAT:??_R0?AVbad_alloc@std@@@8
	DD	FLAT:??_R3bad_alloc@std@@8
rdata$r	ENDS
;	COMDAT ??_R3bad_alloc@std@@8
rdata$r	SEGMENT
??_R3bad_alloc@std@@8 DD 00H				; std::bad_alloc::`RTTI Class Hierarchy Descriptor'
	DD	00H
	DD	02H
	DD	FLAT:??_R2bad_alloc@std@@8
rdata$r	ENDS
;	COMDAT ??_R2bad_alloc@std@@8
rdata$r	SEGMENT
??_R2bad_alloc@std@@8 DD FLAT:??_R1A@?0A@EA@bad_alloc@std@@8 ; std::bad_alloc::`RTTI Base Class Array'
	DD	FLAT:??_R1A@?0A@EA@exception@std@@8
rdata$r	ENDS
;	COMDAT ??_R1A@?0A@EA@exception@std@@8
rdata$r	SEGMENT
??_R1A@?0A@EA@exception@std@@8 DD FLAT:??_R0?AVexception@std@@@8 ; std::exception::`RTTI Base Class Descriptor at (0,-1,0,64)'
	DD	00H
	DD	00H
	DD	0ffffffffH
	DD	00H
	DD	040H
	DD	FLAT:??_R3exception@std@@8
rdata$r	ENDS
;	COMDAT ??_R3exception@std@@8
rdata$r	SEGMENT
??_R3exception@std@@8 DD 00H				; std::exception::`RTTI Class Hierarchy Descriptor'
	DD	00H
	DD	01H
	DD	FLAT:??_R2exception@std@@8
rdata$r	ENDS
;	COMDAT ??_R2exception@std@@8
rdata$r	SEGMENT
??_R2exception@std@@8 DD FLAT:??_R1A@?0A@EA@exception@std@@8 ; std::exception::`RTTI Base Class Array'
rdata$r	ENDS
;	COMDAT ??_R1A@?0A@EA@bad_alloc@std@@8
rdata$r	SEGMENT
??_R1A@?0A@EA@bad_alloc@std@@8 DD FLAT:??_R0?AVbad_alloc@std@@@8 ; std::bad_alloc::`RTTI Base Class Descriptor at (0,-1,0,64)'
	DD	01H
	DD	00H
	DD	0ffffffffH
	DD	00H
	DD	040H
	DD	FLAT:??_R3bad_alloc@std@@8
rdata$r	ENDS
;	COMDAT __TI2?AVbad_alloc@std@@
xdata$x	SEGMENT
__TI2?AVbad_alloc@std@@ DD 00H
	DD	FLAT:??1bad_alloc@std@@UAE@XZ
	DD	00H
	DD	FLAT:__CTA2?AVbad_alloc@std@@
xdata$x	ENDS
;	COMDAT __CTA2?AVbad_alloc@std@@
xdata$x	SEGMENT
__CTA2?AVbad_alloc@std@@ DD 02H
	DD	FLAT:__CT??_R0?AVbad_alloc@std@@@8??0bad_alloc@std@@QAE@ABV01@@Z12
	DD	FLAT:__CT??_R0?AVexception@std@@@8??0exception@std@@QAE@ABV01@@Z12
xdata$x	ENDS
;	COMDAT __CT??_R0?AVbad_alloc@std@@@8??0bad_alloc@std@@QAE@ABV01@@Z12
xdata$x	SEGMENT
__CT??_R0?AVbad_alloc@std@@@8??0bad_alloc@std@@QAE@ABV01@@Z12 DD 00H
	DD	FLAT:??_R0?AVbad_alloc@std@@@8
	DD	00H
	DD	0ffffffffH
	ORG $+4
	DD	0cH
	DD	FLAT:??0bad_alloc@std@@QAE@ABV01@@Z
xdata$x	ENDS
;	COMDAT ??_R0?AVbad_alloc@std@@@8
_DATA	SEGMENT
??_R0?AVbad_alloc@std@@@8 DD FLAT:??_7type_info@@6B@	; std::bad_alloc `RTTI Type Descriptor'
	DD	00H
	DB	'.?AVbad_alloc@std@@', 00H
_DATA	ENDS
;	COMDAT __TI2?AVbad_cast@std@@
xdata$x	SEGMENT
__TI2?AVbad_cast@std@@ DD 00H
	DD	FLAT:??1bad_cast@std@@UAE@XZ
	DD	00H
	DD	FLAT:__CTA2?AVbad_cast@std@@
xdata$x	ENDS
;	COMDAT __CTA2?AVbad_cast@std@@
xdata$x	SEGMENT
__CTA2?AVbad_cast@std@@ DD 02H
	DD	FLAT:__CT??_R0?AVbad_cast@std@@@8??0bad_cast@std@@QAE@ABV01@@Z12
	DD	FLAT:__CT??_R0?AVexception@std@@@8??0exception@std@@QAE@ABV01@@Z12
xdata$x	ENDS
;	COMDAT __CT??_R0?AVbad_cast@std@@@8??0bad_cast@std@@QAE@ABV01@@Z12
xdata$x	SEGMENT
__CT??_R0?AVbad_cast@std@@@8??0bad_cast@std@@QAE@ABV01@@Z12 DD 00H
	DD	FLAT:??_R0?AVbad_cast@std@@@8
	DD	00H
	DD	0ffffffffH
	ORG $+4
	DD	0cH
	DD	FLAT:??0bad_cast@std@@QAE@ABV01@@Z
xdata$x	ENDS
;	COMDAT ??_R0?AVbad_cast@std@@@8
_DATA	SEGMENT
??_R0?AVbad_cast@std@@@8 DD FLAT:??_7type_info@@6B@	; std::bad_cast `RTTI Type Descriptor'
	DD	00H
	DB	'.?AVbad_cast@std@@', 00H
_DATA	ENDS
;	COMDAT ??_C@_08EPJLHIJG@bad?5cast?$AA@
CONST	SEGMENT
??_C@_08EPJLHIJG@bad?5cast?$AA@ DB 'bad cast', 00H	; `string'
CONST	ENDS
;	COMDAT ?npos@?$basic_string@DU?$char_traits@D@std@@V?$allocator@D@2@@std@@2IB
CONST	SEGMENT
?npos@?$basic_string@DU?$char_traits@D@std@@V?$allocator@D@2@@std@@2IB DD 0ffffffffH ; std::basic_string<char,std::char_traits<char>,std::allocator<char> >::npos
CONST	ENDS
;	COMDAT ??_C@_0BC@KBDMBKEH@deque?$DMT?$DO?5too?5long?$AA@
CONST	SEGMENT
??_C@_0BC@KBDMBKEH@deque?$DMT?$DO?5too?5long?$AA@ DB 'deque<T> too long', 00H ; `string'
CONST	ENDS
;	COMDAT ??_C@_0BI@CFPLBAOH@invalid?5string?5position?$AA@
CONST	SEGMENT
??_C@_0BI@CFPLBAOH@invalid?5string?5position?$AA@ DB 'invalid string posi'
	DB	'tion', 00H					; `string'
CONST	ENDS
;	COMDAT ??_C@_0BA@JFNIOLAK@string?5too?5long?$AA@
CONST	SEGMENT
??_C@_0BA@JFNIOLAK@string?5too?5long?$AA@ DB 'string too long', 00H ; `string'
CONST	ENDS
;	COMDAT ??_C@_04JBAOJHKB@See?5?$AA@
CONST	SEGMENT
??_C@_04JBAOJHKB@See?5?$AA@ DB 'See ', 00H		; `string'
CONST	ENDS
;	COMDAT ??_C@_0O@JBAGGIKP@?5for?5detail?4?6?$AA@
CONST	SEGMENT
??_C@_0O@JBAGGIKP@?5for?5detail?4?6?$AA@ DB ' for detail.', 0aH, 00H ; `string'
CONST	ENDS
;	COMDAT ??_C@_02KNHHEEKP@?5?5?$AA@
CONST	SEGMENT
??_C@_02KNHHEEKP@?5?5?$AA@ DB '  ', 00H			; `string'
CONST	ENDS
;	COMDAT ??_C@_02KAOAMBHJ@?$CK?5?$AA@
CONST	SEGMENT
??_C@_02KAOAMBHJ@?$CK?5?$AA@ DB '* ', 00H		; `string'
CONST	ENDS
;	COMDAT ??_C@_0BD@LAMGIMLG@Line?5?$CFd?0?5Column?5?$CFd?$AA@
CONST	SEGMENT
??_C@_0BD@LAMGIMLG@Line?5?$CFd?0?5Column?5?$CFd?$AA@ DB 'Line %d, Column '
	DB	'%d', 00H					; `string'
CONST	ENDS
;	COMDAT ??_C@_0ED@FIDDECIG@Bad?5unicode?5escape?5sequence?5in?5s@
CONST	SEGMENT
??_C@_0ED@FIDDECIG@Bad?5unicode?5escape?5sequence?5in?5s@ DB 'Bad unicode'
	DB	' escape sequence in string: hexadecimal digit expected.', 00H ; `string'
CONST	ENDS
;	COMDAT ??_C@_0DN@BPAHJPFJ@Bad?5unicode?5escape?5sequence?5in?5s@
CONST	SEGMENT
??_C@_0DN@BPAHJPFJ@Bad?5unicode?5escape?5sequence?5in?5s@ DB 'Bad unicode'
	DB	' escape sequence in string: four digits expected.', 00H ; `string'
CONST	ENDS
;	COMDAT ??_C@_0FA@BGMMPLKB@expecting?5another?5?2u?5token?5to?5be@
CONST	SEGMENT
??_C@_0FA@BGMMPLKB@expecting?5another?5?2u?5token?5to?5be@ DB 'expecting '
	DB	'another \u token to begin the second half of a unicode surrog'
	DB	'ate pair', 00H				; `string'
CONST	ENDS
;	COMDAT ??_C@_0EE@LMPEHADE@additional?5six?5characters?5expect@
CONST	SEGMENT
??_C@_0EE@LMPEHADE@additional?5six?5characters?5expect@ DB 'additional si'
	DB	'x characters expected to parse unicode surrogate pair.', 00H ; `string'
CONST	ENDS
;	COMDAT ??_C@_0BO@NDEEJNNB@Bad?5escape?5sequence?5in?5string?$AA@
CONST	SEGMENT
??_C@_0BO@NDEEJNNB@Bad?5escape?5sequence?5in?5string?$AA@ DB 'Bad escape '
	DB	'sequence in string', 00H			; `string'
CONST	ENDS
;	COMDAT ??_C@_0CA@DPGKPPOE@Empty?5escape?5sequence?5in?5string?$AA@
CONST	SEGMENT
??_C@_0CA@DPGKPPOE@Empty?5escape?5sequence?5in?5string?$AA@ DB 'Empty esc'
	DB	'ape sequence in string', 00H		; `string'
CONST	ENDS
;	COMDAT ??_C@_03DLDNIBIK@?$CFlf?$AA@
CONST	SEGMENT
??_C@_03DLDNIBIK@?$CFlf?$AA@ DB '%lf', 00H		; `string'
CONST	ENDS
;	COMDAT ??_C@_01GEODFPGF@?8?$AA@
CONST	SEGMENT
??_C@_01GEODFPGF@?8?$AA@ DB '''', 00H			; `string'
CONST	ENDS
;	COMDAT ??_C@_0BD@HHNBFDKF@?8?5is?5not?5a?5number?4?$AA@
CONST	SEGMENT
??_C@_0BD@HHNBFDKF@?8?5is?5not?5a?5number?4?$AA@ DB ''' is not a number.', 00H ; `string'
CONST	ENDS
;	COMDAT ??_C@_0CI@DPCANLPO@Missing?5?8?0?8?5or?5?8?$FN?8?5in?5array?5decl@
CONST	SEGMENT
??_C@_0CI@DPCANLPO@Missing?5?8?0?8?5or?5?8?$FN?8?5in?5array?5decl@ DB 'Mi'
	DB	'ssing '','' or '']'' in array declaration', 00H ; `string'
CONST	ENDS
;	COMDAT ??_C@_0CC@JNCGHFHN@Missing?5?8?$HN?8?5or?5object?5member?5nam@
CONST	SEGMENT
??_C@_0CC@JNCGHFHN@Missing?5?8?$HN?8?5or?5object?5member?5nam@ DB 'Missin'
	DB	'g ''}'' or object member name', 00H		; `string'
CONST	ENDS
;	COMDAT ??_C@_0CJ@NGKOAFKA@Missing?5?8?0?8?5or?5?8?$HN?8?5in?5object?5dec@
CONST	SEGMENT
??_C@_0CJ@NGKOAFKA@Missing?5?8?0?8?5or?5?8?$HN?8?5in?5object?5dec@ DB 'Mi'
	DB	'ssing '','' or ''}'' in object declaration', 00H ; `string'
CONST	ENDS
;	COMDAT ??_C@_0CF@GCCDMCPH@Missing?5?8?3?8?5after?5object?5member?5@
CONST	SEGMENT
??_C@_0CF@GCCDMCPH@Missing?5?8?3?8?5after?5object?5member?5@ DB 'Missing '
	DB	''':'' after object member name', 00H	; `string'
CONST	ENDS
;	COMDAT ??_C@_01EEMJAFIK@?6?$AA@
CONST	SEGMENT
??_C@_01EEMJAFIK@?6?$AA@ DB 0aH, 00H			; `string'
CONST	ENDS
;	COMDAT ??_C@_03KNPGGKC@ull?$AA@
CONST	SEGMENT
??_C@_03KNPGGKC@ull?$AA@ DB 'ull', 00H			; `string'
CONST	ENDS
;	COMDAT ??_C@_04KCECFHEP@alse?$AA@
CONST	SEGMENT
??_C@_04KCECFHEP@alse?$AA@ DB 'alse', 00H		; `string'
CONST	ENDS
;	COMDAT ??_C@_03FFDNHNKN@rue?$AA@
CONST	SEGMENT
??_C@_03FFDNHNKN@rue?$AA@ DB 'rue', 00H			; `string'
CONST	ENDS
;	COMDAT ??_C@_0CP@GDDNKEK@Syntax?5error?3?5value?0?5object?5or?5a@
CONST	SEGMENT
??_C@_0CP@GDDNKEK@Syntax?5error?3?5value?0?5object?5or?5a@ DB 'Syntax err'
	DB	'or: value, object or array expected.', 00H	; `string'
CONST	ENDS
;	COMDAT ??_C@_0EC@HCHNIDLM@A?5valid?5JSON?5document?5must?5be?5ei@
CONST	SEGMENT
??_C@_0EC@HCHNIDLM@A?5valid?5JSON?5document?5must?5be?5ei@ DB 'A valid JS'
	DB	'ON document must be either an array or an object value.', 00H ; `string'
CONST	ENDS
;	COMDAT ??_C@_00CNPNBAHC@?$AA@
CONST	SEGMENT
??_C@_00CNPNBAHC@?$AA@ DB 00H				; `string'
CONST	ENDS
;	COMDAT __TI4?AVfailure@ios_base@std@@
xdata$x	SEGMENT
__TI4?AVfailure@ios_base@std@@ DD 00H
	DD	FLAT:??1failure@ios_base@std@@UAE@XZ
	DD	00H
	DD	FLAT:__CTA4?AVfailure@ios_base@std@@
xdata$x	ENDS
;	COMDAT __CTA4?AVfailure@ios_base@std@@
xdata$x	SEGMENT
__CTA4?AVfailure@ios_base@std@@ DD 04H
	DD	FLAT:__CT??_R0?AVfailure@ios_base@std@@@8??0failure@ios_base@std@@QAE@ABV012@@Z20
	DD	FLAT:__CT??_R0?AVsystem_error@std@@@8??0system_error@std@@QAE@ABV01@@Z20
	DD	FLAT:__CT??_R0?AVruntime_error@std@@@8??0runtime_error@std@@QAE@ABV01@@Z12
	DD	FLAT:__CT??_R0?AVexception@std@@@8??0exception@std@@QAE@ABV01@@Z12
xdata$x	ENDS
;	COMDAT __CT??_R0?AVsystem_error@std@@@8??0system_error@std@@QAE@ABV01@@Z20
xdata$x	SEGMENT
__CT??_R0?AVsystem_error@std@@@8??0system_error@std@@QAE@ABV01@@Z20 DD 00H
	DD	FLAT:??_R0?AVsystem_error@std@@@8
	DD	00H
	DD	0ffffffffH
	ORG $+4
	DD	014H
	DD	FLAT:??0system_error@std@@QAE@ABV01@@Z
xdata$x	ENDS
;	COMDAT __CT??_R0?AVfailure@ios_base@std@@@8??0failure@ios_base@std@@QAE@ABV012@@Z20
xdata$x	SEGMENT
__CT??_R0?AVfailure@ios_base@std@@@8??0failure@ios_base@std@@QAE@ABV012@@Z20 DD 00H
	DD	FLAT:??_R0?AVfailure@ios_base@std@@@8
	DD	00H
	DD	0ffffffffH
	ORG $+4
	DD	014H
	DD	FLAT:??0failure@ios_base@std@@QAE@ABV012@@Z
xdata$x	ENDS
;	COMDAT ??_R0?AVsystem_error@std@@@8
_DATA	SEGMENT
??_R0?AVsystem_error@std@@@8 DD FLAT:??_7type_info@@6B@	; std::system_error `RTTI Type Descriptor'
	DD	00H
	DB	'.?AVsystem_error@std@@', 00H
_DATA	ENDS
;	COMDAT ??_R0?AVfailure@ios_base@std@@@8
_DATA	SEGMENT
??_R0?AVfailure@ios_base@std@@@8 DD FLAT:??_7type_info@@6B@ ; std::ios_base::failure `RTTI Type Descriptor'
	DD	00H
	DB	'.?AVfailure@ios_base@std@@', 00H
_DATA	ENDS
;	COMDAT ??_C@_0BF@OOHOMBOF@ios_base?3?3eofbit?5set?$AA@
CONST	SEGMENT
??_C@_0BF@OOHOMBOF@ios_base?3?3eofbit?5set?$AA@ DB 'ios_base::eofbit set', 00H ; `string'
CONST	ENDS
;	COMDAT ??_C@_0BG@FMKFHCIL@ios_base?3?3failbit?5set?$AA@
CONST	SEGMENT
??_C@_0BG@FMKFHCIL@ios_base?3?3failbit?5set?$AA@ DB 'ios_base::failbit se'
	DB	't', 00H					; `string'
CONST	ENDS
;	COMDAT ??_C@_0BF@PHHKMMFD@ios_base?3?3badbit?5set?$AA@
CONST	SEGMENT
??_C@_0BF@PHHKMMFD@ios_base?3?3badbit?5set?$AA@ DB 'ios_base::badbit set', 00H ; `string'
CONST	ENDS
;	COMDAT __TI2?AVruntime_error@std@@
xdata$x	SEGMENT
__TI2?AVruntime_error@std@@ DD 00H
	DD	FLAT:??1runtime_error@std@@UAE@XZ
	DD	00H
	DD	FLAT:__CTA2?AVruntime_error@std@@
xdata$x	ENDS
;	COMDAT __CTA2?AVruntime_error@std@@
xdata$x	SEGMENT
__CTA2?AVruntime_error@std@@ DD 02H
	DD	FLAT:__CT??_R0?AVruntime_error@std@@@8??0runtime_error@std@@QAE@ABV01@@Z12
	DD	FLAT:__CT??_R0?AVexception@std@@@8??0exception@std@@QAE@ABV01@@Z12
xdata$x	ENDS
;	COMDAT __CT??_R0?AVexception@std@@@8??0exception@std@@QAE@ABV01@@Z12
xdata$x	SEGMENT
__CT??_R0?AVexception@std@@@8??0exception@std@@QAE@ABV01@@Z12 DD 00H
	DD	FLAT:??_R0?AVexception@std@@@8
	DD	00H
	DD	0ffffffffH
	ORG $+4
	DD	0cH
	DD	FLAT:??0exception@std@@QAE@ABV01@@Z
xdata$x	ENDS
;	COMDAT __CT??_R0?AVruntime_error@std@@@8??0runtime_error@std@@QAE@ABV01@@Z12
xdata$x	SEGMENT
__CT??_R0?AVruntime_error@std@@@8??0runtime_error@std@@QAE@ABV01@@Z12 DD 00H
	DD	FLAT:??_R0?AVruntime_error@std@@@8
	DD	00H
	DD	0ffffffffH
	ORG $+4
	DD	0cH
	DD	FLAT:??0runtime_error@std@@QAE@ABV01@@Z
xdata$x	ENDS
;	COMDAT ??_R0?AVexception@std@@@8
_DATA	SEGMENT
??_R0?AVexception@std@@@8 DD FLAT:??_7type_info@@6B@	; std::exception `RTTI Type Descriptor'
	DD	00H
	DB	'.?AVexception@std@@', 00H
_DATA	ENDS
;	COMDAT ??_R0?AVruntime_error@std@@@8
_DATA	SEGMENT
??_R0?AVruntime_error@std@@@8 DD FLAT:??_7type_info@@6B@ ; std::runtime_error `RTTI Type Descriptor'
	DD	00H
	DB	'.?AVruntime_error@std@@', 00H
_DATA	ENDS
;	COMDAT ??_C@_0BA@ELKIONDK@bad?5locale?5name?$AA@
CONST	SEGMENT
??_C@_0BA@ELKIONDK@bad?5locale?5name?$AA@ DB 'bad locale name', 00H ; `string'
CONST	ENDS
;	COMDAT ?min_exponent10@?$numeric_limits@O@std@@2HB
CONST	SEGMENT
?min_exponent10@?$numeric_limits@O@std@@2HB DD 0fffffecdH ; std::numeric_limits<long double>::min_exponent10
CONST	ENDS
;	COMDAT ?min_exponent@?$numeric_limits@O@std@@2HB
CONST	SEGMENT
?min_exponent@?$numeric_limits@O@std@@2HB DD 0fffffc03H	; std::numeric_limits<long double>::min_exponent
CONST	ENDS
;	COMDAT ?max_exponent10@?$numeric_limits@O@std@@2HB
CONST	SEGMENT
?max_exponent10@?$numeric_limits@O@std@@2HB DD 0134H	; std::numeric_limits<long double>::max_exponent10
CONST	ENDS
;	COMDAT ?max_exponent@?$numeric_limits@O@std@@2HB
CONST	SEGMENT
?max_exponent@?$numeric_limits@O@std@@2HB DD 0400H	; std::numeric_limits<long double>::max_exponent
CONST	ENDS
;	COMDAT ?max_digits10@?$numeric_limits@O@std@@2HB
CONST	SEGMENT
?max_digits10@?$numeric_limits@O@std@@2HB DD 011H	; std::numeric_limits<long double>::max_digits10
CONST	ENDS
;	COMDAT ?digits10@?$numeric_limits@O@std@@2HB
CONST	SEGMENT
?digits10@?$numeric_limits@O@std@@2HB DD 0fH		; std::numeric_limits<long double>::digits10
CONST	ENDS
;	COMDAT ?digits@?$numeric_limits@O@std@@2HB
CONST	SEGMENT
?digits@?$numeric_limits@O@std@@2HB DD 035H		; std::numeric_limits<long double>::digits
CONST	ENDS
;	COMDAT ?min_exponent10@?$numeric_limits@N@std@@2HB
CONST	SEGMENT
?min_exponent10@?$numeric_limits@N@std@@2HB DD 0fffffecdH ; std::numeric_limits<double>::min_exponent10
CONST	ENDS
;	COMDAT ?min_exponent@?$numeric_limits@N@std@@2HB
CONST	SEGMENT
?min_exponent@?$numeric_limits@N@std@@2HB DD 0fffffc03H	; std::numeric_limits<double>::min_exponent
CONST	ENDS
;	COMDAT ?max_exponent10@?$numeric_limits@N@std@@2HB
CONST	SEGMENT
?max_exponent10@?$numeric_limits@N@std@@2HB DD 0134H	; std::numeric_limits<double>::max_exponent10
CONST	ENDS
;	COMDAT ?max_exponent@?$numeric_limits@N@std@@2HB
CONST	SEGMENT
?max_exponent@?$numeric_limits@N@std@@2HB DD 0400H	; std::numeric_limits<double>::max_exponent
CONST	ENDS
;	COMDAT ?max_digits10@?$numeric_limits@N@std@@2HB
CONST	SEGMENT
?max_digits10@?$numeric_limits@N@std@@2HB DD 011H	; std::numeric_limits<double>::max_digits10
CONST	ENDS
;	COMDAT ?digits10@?$numeric_limits@N@std@@2HB
CONST	SEGMENT
?digits10@?$numeric_limits@N@std@@2HB DD 0fH		; std::numeric_limits<double>::digits10
CONST	ENDS
;	COMDAT ?digits@?$numeric_limits@N@std@@2HB
CONST	SEGMENT
?digits@?$numeric_limits@N@std@@2HB DD 035H		; std::numeric_limits<double>::digits
CONST	ENDS
;	COMDAT ?min_exponent10@?$numeric_limits@M@std@@2HB
CONST	SEGMENT
?min_exponent10@?$numeric_limits@M@std@@2HB DD 0ffffffdbH ; std::numeric_limits<float>::min_exponent10
CONST	ENDS
;	COMDAT ?min_exponent@?$numeric_limits@M@std@@2HB
CONST	SEGMENT
?min_exponent@?$numeric_limits@M@std@@2HB DD 0ffffff83H	; std::numeric_limits<float>::min_exponent
CONST	ENDS
;	COMDAT ?max_exponent10@?$numeric_limits@M@std@@2HB
CONST	SEGMENT
?max_exponent10@?$numeric_limits@M@std@@2HB DD 026H	; std::numeric_limits<float>::max_exponent10
CONST	ENDS
;	COMDAT ?max_exponent@?$numeric_limits@M@std@@2HB
CONST	SEGMENT
?max_exponent@?$numeric_limits@M@std@@2HB DD 080H	; std::numeric_limits<float>::max_exponent
CONST	ENDS
;	COMDAT ?max_digits10@?$numeric_limits@M@std@@2HB
CONST	SEGMENT
?max_digits10@?$numeric_limits@M@std@@2HB DD 08H	; std::numeric_limits<float>::max_digits10
CONST	ENDS
;	COMDAT ?digits10@?$numeric_limits@M@std@@2HB
CONST	SEGMENT
?digits10@?$numeric_limits@M@std@@2HB DD 06H		; std::numeric_limits<float>::digits10
CONST	ENDS
;	COMDAT ?digits@?$numeric_limits@M@std@@2HB
CONST	SEGMENT
?digits@?$numeric_limits@M@std@@2HB DD 018H		; std::numeric_limits<float>::digits
CONST	ENDS
;	COMDAT ?max_digits10@?$numeric_limits@_K@std@@2HB
CONST	SEGMENT
?max_digits10@?$numeric_limits@_K@std@@2HB DD 015H	; std::numeric_limits<unsigned __int64>::max_digits10
CONST	ENDS
;	COMDAT ?digits10@?$numeric_limits@_K@std@@2HB
CONST	SEGMENT
?digits10@?$numeric_limits@_K@std@@2HB DD 013H		; std::numeric_limits<unsigned __int64>::digits10
CONST	ENDS
;	COMDAT ?digits@?$numeric_limits@_K@std@@2HB
CONST	SEGMENT
?digits@?$numeric_limits@_K@std@@2HB DD 040H		; std::numeric_limits<unsigned __int64>::digits
CONST	ENDS
;	COMDAT ?is_signed@?$numeric_limits@_K@std@@2_NB
CONST	SEGMENT
?is_signed@?$numeric_limits@_K@std@@2_NB DB 00H		; std::numeric_limits<unsigned __int64>::is_signed
CONST	ENDS
;	COMDAT ?max_digits10@?$numeric_limits@_J@std@@2HB
CONST	SEGMENT
?max_digits10@?$numeric_limits@_J@std@@2HB DD 014H	; std::numeric_limits<__int64>::max_digits10
CONST	ENDS
;	COMDAT ?digits10@?$numeric_limits@_J@std@@2HB
CONST	SEGMENT
?digits10@?$numeric_limits@_J@std@@2HB DD 012H		; std::numeric_limits<__int64>::digits10
CONST	ENDS
;	COMDAT ?digits@?$numeric_limits@_J@std@@2HB
CONST	SEGMENT
?digits@?$numeric_limits@_J@std@@2HB DD 03fH		; std::numeric_limits<__int64>::digits
CONST	ENDS
;	COMDAT ?is_signed@?$numeric_limits@_J@std@@2_NB
CONST	SEGMENT
?is_signed@?$numeric_limits@_J@std@@2_NB DB 01H		; std::numeric_limits<__int64>::is_signed
CONST	ENDS
;	COMDAT ?max_digits10@?$numeric_limits@K@std@@2HB
CONST	SEGMENT
?max_digits10@?$numeric_limits@K@std@@2HB DD 0bH	; std::numeric_limits<unsigned long>::max_digits10
CONST	ENDS
;	COMDAT ?digits10@?$numeric_limits@K@std@@2HB
CONST	SEGMENT
?digits10@?$numeric_limits@K@std@@2HB DD 09H		; std::numeric_limits<unsigned long>::digits10
CONST	ENDS
;	COMDAT ?digits@?$numeric_limits@K@std@@2HB
CONST	SEGMENT
?digits@?$numeric_limits@K@std@@2HB DD 020H		; std::numeric_limits<unsigned long>::digits
CONST	ENDS
;	COMDAT ?is_signed@?$numeric_limits@K@std@@2_NB
CONST	SEGMENT
?is_signed@?$numeric_limits@K@std@@2_NB DB 00H		; std::numeric_limits<unsigned long>::is_signed
CONST	ENDS
;	COMDAT ?max_digits10@?$numeric_limits@J@std@@2HB
CONST	SEGMENT
?max_digits10@?$numeric_limits@J@std@@2HB DD 0bH	; std::numeric_limits<long>::max_digits10
CONST	ENDS
;	COMDAT ?digits10@?$numeric_limits@J@std@@2HB
CONST	SEGMENT
?digits10@?$numeric_limits@J@std@@2HB DD 09H		; std::numeric_limits<long>::digits10
CONST	ENDS
;	COMDAT ?digits@?$numeric_limits@J@std@@2HB
CONST	SEGMENT
?digits@?$numeric_limits@J@std@@2HB DD 01fH		; std::numeric_limits<long>::digits
CONST	ENDS
;	COMDAT ?is_signed@?$numeric_limits@J@std@@2_NB
CONST	SEGMENT
?is_signed@?$numeric_limits@J@std@@2_NB DB 01H		; std::numeric_limits<long>::is_signed
CONST	ENDS
;	COMDAT ?max_digits10@?$numeric_limits@I@std@@2HB
CONST	SEGMENT
?max_digits10@?$numeric_limits@I@std@@2HB DD 0bH	; std::numeric_limits<unsigned int>::max_digits10
CONST	ENDS
;	COMDAT ?digits10@?$numeric_limits@I@std@@2HB
CONST	SEGMENT
?digits10@?$numeric_limits@I@std@@2HB DD 09H		; std::numeric_limits<unsigned int>::digits10
CONST	ENDS
;	COMDAT ?digits@?$numeric_limits@I@std@@2HB
CONST	SEGMENT
?digits@?$numeric_limits@I@std@@2HB DD 020H		; std::numeric_limits<unsigned int>::digits
CONST	ENDS
;	COMDAT ?is_signed@?$numeric_limits@I@std@@2_NB
CONST	SEGMENT
?is_signed@?$numeric_limits@I@std@@2_NB DB 00H		; std::numeric_limits<unsigned int>::is_signed
CONST	ENDS
;	COMDAT ?max_digits10@?$numeric_limits@H@std@@2HB
CONST	SEGMENT
?max_digits10@?$numeric_limits@H@std@@2HB DD 0bH	; std::numeric_limits<int>::max_digits10
CONST	ENDS
;	COMDAT ?digits10@?$numeric_limits@H@std@@2HB
CONST	SEGMENT
?digits10@?$numeric_limits@H@std@@2HB DD 09H		; std::numeric_limits<int>::digits10
CONST	ENDS
;	COMDAT ?digits@?$numeric_limits@H@std@@2HB
CONST	SEGMENT
?digits@?$numeric_limits@H@std@@2HB DD 01fH		; std::numeric_limits<int>::digits
CONST	ENDS
;	COMDAT ?is_signed@?$numeric_limits@H@std@@2_NB
CONST	SEGMENT
?is_signed@?$numeric_limits@H@std@@2_NB DB 01H		; std::numeric_limits<int>::is_signed
CONST	ENDS
;	COMDAT ?max_digits10@?$numeric_limits@G@std@@2HB
CONST	SEGMENT
?max_digits10@?$numeric_limits@G@std@@2HB DD 06H	; std::numeric_limits<unsigned short>::max_digits10
CONST	ENDS
;	COMDAT ?digits10@?$numeric_limits@G@std@@2HB
CONST	SEGMENT
?digits10@?$numeric_limits@G@std@@2HB DD 04H		; std::numeric_limits<unsigned short>::digits10
CONST	ENDS
;	COMDAT ?digits@?$numeric_limits@G@std@@2HB
CONST	SEGMENT
?digits@?$numeric_limits@G@std@@2HB DD 010H		; std::numeric_limits<unsigned short>::digits
CONST	ENDS
;	COMDAT ?is_signed@?$numeric_limits@G@std@@2_NB
CONST	SEGMENT
?is_signed@?$numeric_limits@G@std@@2_NB DB 00H		; std::numeric_limits<unsigned short>::is_signed
CONST	ENDS
;	COMDAT ?max_digits10@?$numeric_limits@F@std@@2HB
CONST	SEGMENT
?max_digits10@?$numeric_limits@F@std@@2HB DD 06H	; std::numeric_limits<short>::max_digits10
CONST	ENDS
;	COMDAT ?digits10@?$numeric_limits@F@std@@2HB
CONST	SEGMENT
?digits10@?$numeric_limits@F@std@@2HB DD 04H		; std::numeric_limits<short>::digits10
CONST	ENDS
;	COMDAT ?digits@?$numeric_limits@F@std@@2HB
CONST	SEGMENT
?digits@?$numeric_limits@F@std@@2HB DD 0fH		; std::numeric_limits<short>::digits
CONST	ENDS
;	COMDAT ?is_signed@?$numeric_limits@F@std@@2_NB
CONST	SEGMENT
?is_signed@?$numeric_limits@F@std@@2_NB DB 01H		; std::numeric_limits<short>::is_signed
CONST	ENDS
;	COMDAT ?max_digits10@?$numeric_limits@E@std@@2HB
CONST	SEGMENT
?max_digits10@?$numeric_limits@E@std@@2HB DD 04H	; std::numeric_limits<unsigned char>::max_digits10
CONST	ENDS
;	COMDAT ?digits10@?$numeric_limits@E@std@@2HB
CONST	SEGMENT
?digits10@?$numeric_limits@E@std@@2HB DD 02H		; std::numeric_limits<unsigned char>::digits10
CONST	ENDS
;	COMDAT ?digits@?$numeric_limits@E@std@@2HB
CONST	SEGMENT
?digits@?$numeric_limits@E@std@@2HB DD 08H		; std::numeric_limits<unsigned char>::digits
CONST	ENDS
;	COMDAT ?is_signed@?$numeric_limits@E@std@@2_NB
CONST	SEGMENT
?is_signed@?$numeric_limits@E@std@@2_NB DB 00H		; std::numeric_limits<unsigned char>::is_signed
CONST	ENDS
;	COMDAT ?max_digits10@?$numeric_limits@C@std@@2HB
CONST	SEGMENT
?max_digits10@?$numeric_limits@C@std@@2HB DD 04H	; std::numeric_limits<signed char>::max_digits10
CONST	ENDS
;	COMDAT ?digits10@?$numeric_limits@C@std@@2HB
CONST	SEGMENT
?digits10@?$numeric_limits@C@std@@2HB DD 02H		; std::numeric_limits<signed char>::digits10
CONST	ENDS
;	COMDAT ?digits@?$numeric_limits@C@std@@2HB
CONST	SEGMENT
?digits@?$numeric_limits@C@std@@2HB DD 07H		; std::numeric_limits<signed char>::digits
CONST	ENDS
;	COMDAT ?is_signed@?$numeric_limits@C@std@@2_NB
CONST	SEGMENT
?is_signed@?$numeric_limits@C@std@@2_NB DB 01H		; std::numeric_limits<signed char>::is_signed
CONST	ENDS
;	COMDAT ?max_digits10@?$numeric_limits@_N@std@@2HB
CONST	SEGMENT
?max_digits10@?$numeric_limits@_N@std@@2HB DD 00H	; std::numeric_limits<bool>::max_digits10
CONST	ENDS
;	COMDAT ?digits10@?$numeric_limits@_N@std@@2HB
CONST	SEGMENT
?digits10@?$numeric_limits@_N@std@@2HB DD 00H		; std::numeric_limits<bool>::digits10
CONST	ENDS
;	COMDAT ?digits@?$numeric_limits@_N@std@@2HB
CONST	SEGMENT
?digits@?$numeric_limits@_N@std@@2HB DD 01H		; std::numeric_limits<bool>::digits
CONST	ENDS
;	COMDAT ?is_signed@?$numeric_limits@_N@std@@2_NB
CONST	SEGMENT
?is_signed@?$numeric_limits@_N@std@@2_NB DB 00H		; std::numeric_limits<bool>::is_signed
CONST	ENDS
;	COMDAT ?is_modulo@?$numeric_limits@_N@std@@2_NB
CONST	SEGMENT
?is_modulo@?$numeric_limits@_N@std@@2_NB DB 00H		; std::numeric_limits<bool>::is_modulo
CONST	ENDS
;	COMDAT ?max_digits10@?$numeric_limits@_W@std@@2HB
CONST	SEGMENT
?max_digits10@?$numeric_limits@_W@std@@2HB DD 06H	; std::numeric_limits<wchar_t>::max_digits10
CONST	ENDS
;	COMDAT ?digits10@?$numeric_limits@_W@std@@2HB
CONST	SEGMENT
?digits10@?$numeric_limits@_W@std@@2HB DD 04H		; std::numeric_limits<wchar_t>::digits10
CONST	ENDS
;	COMDAT ?digits@?$numeric_limits@_W@std@@2HB
CONST	SEGMENT
?digits@?$numeric_limits@_W@std@@2HB DD 010H		; std::numeric_limits<wchar_t>::digits
CONST	ENDS
;	COMDAT ?is_signed@?$numeric_limits@_W@std@@2_NB
CONST	SEGMENT
?is_signed@?$numeric_limits@_W@std@@2_NB DB 00H		; std::numeric_limits<wchar_t>::is_signed
CONST	ENDS
;	COMDAT ?max_digits10@?$numeric_limits@D@std@@2HB
CONST	SEGMENT
?max_digits10@?$numeric_limits@D@std@@2HB DD 04H	; std::numeric_limits<char>::max_digits10
CONST	ENDS
;	COMDAT ?digits10@?$numeric_limits@D@std@@2HB
CONST	SEGMENT
?digits10@?$numeric_limits@D@std@@2HB DD 02H		; std::numeric_limits<char>::digits10
CONST	ENDS
;	COMDAT ?digits@?$numeric_limits@D@std@@2HB
CONST	SEGMENT
?digits@?$numeric_limits@D@std@@2HB DD 07H		; std::numeric_limits<char>::digits
CONST	ENDS
;	COMDAT ?is_signed@?$numeric_limits@D@std@@2_NB
CONST	SEGMENT
?is_signed@?$numeric_limits@D@std@@2_NB DB 01H		; std::numeric_limits<char>::is_signed
CONST	ENDS
;	COMDAT ?radix@_Num_float_base@std@@2HB
CONST	SEGMENT
?radix@_Num_float_base@std@@2HB DD 02H			; std::_Num_float_base::radix
CONST	ENDS
;	COMDAT ?round_style@_Num_float_base@std@@2W4float_round_style@2@B
CONST	SEGMENT
?round_style@_Num_float_base@std@@2W4float_round_style@2@B DD 01H ; std::_Num_float_base::round_style
CONST	ENDS
;	COMDAT ?traps@_Num_float_base@std@@2_NB
CONST	SEGMENT
?traps@_Num_float_base@std@@2_NB DB 01H			; std::_Num_float_base::traps
CONST	ENDS
;	COMDAT ?tinyness_before@_Num_float_base@std@@2_NB
CONST	SEGMENT
?tinyness_before@_Num_float_base@std@@2_NB DB 01H	; std::_Num_float_base::tinyness_before
CONST	ENDS
;	COMDAT ?is_specialized@_Num_float_base@std@@2_NB
CONST	SEGMENT
?is_specialized@_Num_float_base@std@@2_NB DB 01H	; std::_Num_float_base::is_specialized
CONST	ENDS
;	COMDAT ?is_signed@_Num_float_base@std@@2_NB
CONST	SEGMENT
?is_signed@_Num_float_base@std@@2_NB DB 01H		; std::_Num_float_base::is_signed
CONST	ENDS
;	COMDAT ?is_modulo@_Num_float_base@std@@2_NB
CONST	SEGMENT
?is_modulo@_Num_float_base@std@@2_NB DB 00H		; std::_Num_float_base::is_modulo
CONST	ENDS
;	COMDAT ?is_integer@_Num_float_base@std@@2_NB
CONST	SEGMENT
?is_integer@_Num_float_base@std@@2_NB DB 00H		; std::_Num_float_base::is_integer
CONST	ENDS
;	COMDAT ?is_iec559@_Num_float_base@std@@2_NB
CONST	SEGMENT
?is_iec559@_Num_float_base@std@@2_NB DB 01H		; std::_Num_float_base::is_iec559
CONST	ENDS
;	COMDAT ?is_exact@_Num_float_base@std@@2_NB
CONST	SEGMENT
?is_exact@_Num_float_base@std@@2_NB DB 00H		; std::_Num_float_base::is_exact
CONST	ENDS
;	COMDAT ?is_bounded@_Num_float_base@std@@2_NB
CONST	SEGMENT
?is_bounded@_Num_float_base@std@@2_NB DB 01H		; std::_Num_float_base::is_bounded
CONST	ENDS
;	COMDAT ?has_signaling_NaN@_Num_float_base@std@@2_NB
CONST	SEGMENT
?has_signaling_NaN@_Num_float_base@std@@2_NB DB 01H	; std::_Num_float_base::has_signaling_NaN
CONST	ENDS
;	COMDAT ?has_quiet_NaN@_Num_float_base@std@@2_NB
CONST	SEGMENT
?has_quiet_NaN@_Num_float_base@std@@2_NB DB 01H		; std::_Num_float_base::has_quiet_NaN
CONST	ENDS
;	COMDAT ?has_infinity@_Num_float_base@std@@2_NB
CONST	SEGMENT
?has_infinity@_Num_float_base@std@@2_NB DB 01H		; std::_Num_float_base::has_infinity
CONST	ENDS
;	COMDAT ?has_denorm_loss@_Num_float_base@std@@2_NB
CONST	SEGMENT
?has_denorm_loss@_Num_float_base@std@@2_NB DB 01H	; std::_Num_float_base::has_denorm_loss
CONST	ENDS
;	COMDAT ?has_denorm@_Num_float_base@std@@2W4float_denorm_style@2@B
CONST	SEGMENT
?has_denorm@_Num_float_base@std@@2W4float_denorm_style@2@B DD 01H ; std::_Num_float_base::has_denorm
CONST	ENDS
;	COMDAT ?radix@_Num_int_base@std@@2HB
CONST	SEGMENT
?radix@_Num_int_base@std@@2HB DD 02H			; std::_Num_int_base::radix
CONST	ENDS
;	COMDAT ?is_specialized@_Num_int_base@std@@2_NB
CONST	SEGMENT
?is_specialized@_Num_int_base@std@@2_NB DB 01H		; std::_Num_int_base::is_specialized
CONST	ENDS
;	COMDAT ?is_modulo@_Num_int_base@std@@2_NB
CONST	SEGMENT
?is_modulo@_Num_int_base@std@@2_NB DB 01H		; std::_Num_int_base::is_modulo
CONST	ENDS
;	COMDAT ?is_integer@_Num_int_base@std@@2_NB
CONST	SEGMENT
?is_integer@_Num_int_base@std@@2_NB DB 01H		; std::_Num_int_base::is_integer
CONST	ENDS
;	COMDAT ?is_exact@_Num_int_base@std@@2_NB
CONST	SEGMENT
?is_exact@_Num_int_base@std@@2_NB DB 01H		; std::_Num_int_base::is_exact
CONST	ENDS
;	COMDAT ?is_bounded@_Num_int_base@std@@2_NB
CONST	SEGMENT
?is_bounded@_Num_int_base@std@@2_NB DB 01H		; std::_Num_int_base::is_bounded
CONST	ENDS
;	COMDAT ?radix@_Num_base@std@@2HB
CONST	SEGMENT
?radix@_Num_base@std@@2HB DD 00H			; std::_Num_base::radix
CONST	ENDS
;	COMDAT ?min_exponent10@_Num_base@std@@2HB
CONST	SEGMENT
?min_exponent10@_Num_base@std@@2HB DD 00H		; std::_Num_base::min_exponent10
CONST	ENDS
;	COMDAT ?min_exponent@_Num_base@std@@2HB
CONST	SEGMENT
?min_exponent@_Num_base@std@@2HB DD 00H			; std::_Num_base::min_exponent
CONST	ENDS
;	COMDAT ?max_exponent10@_Num_base@std@@2HB
CONST	SEGMENT
?max_exponent10@_Num_base@std@@2HB DD 00H		; std::_Num_base::max_exponent10
CONST	ENDS
;	COMDAT ?max_exponent@_Num_base@std@@2HB
CONST	SEGMENT
?max_exponent@_Num_base@std@@2HB DD 00H			; std::_Num_base::max_exponent
CONST	ENDS
;	COMDAT ?max_digits10@_Num_base@std@@2HB
CONST	SEGMENT
?max_digits10@_Num_base@std@@2HB DD 00H			; std::_Num_base::max_digits10
CONST	ENDS
;	COMDAT ?digits10@_Num_base@std@@2HB
CONST	SEGMENT
?digits10@_Num_base@std@@2HB DD 00H			; std::_Num_base::digits10
CONST	ENDS
;	COMDAT ?digits@_Num_base@std@@2HB
CONST	SEGMENT
?digits@_Num_base@std@@2HB DD 00H			; std::_Num_base::digits
CONST	ENDS
;	COMDAT ?round_style@_Num_base@std@@2W4float_round_style@2@B
CONST	SEGMENT
?round_style@_Num_base@std@@2W4float_round_style@2@B DD 00H ; std::_Num_base::round_style
CONST	ENDS
;	COMDAT ?traps@_Num_base@std@@2_NB
CONST	SEGMENT
?traps@_Num_base@std@@2_NB DB 00H			; std::_Num_base::traps
CONST	ENDS
;	COMDAT ?tinyness_before@_Num_base@std@@2_NB
CONST	SEGMENT
?tinyness_before@_Num_base@std@@2_NB DB 00H		; std::_Num_base::tinyness_before
CONST	ENDS
;	COMDAT ?is_specialized@_Num_base@std@@2_NB
CONST	SEGMENT
?is_specialized@_Num_base@std@@2_NB DB 00H		; std::_Num_base::is_specialized
CONST	ENDS
;	COMDAT ?is_signed@_Num_base@std@@2_NB
CONST	SEGMENT
?is_signed@_Num_base@std@@2_NB DB 00H			; std::_Num_base::is_signed
CONST	ENDS
;	COMDAT ?is_modulo@_Num_base@std@@2_NB
CONST	SEGMENT
?is_modulo@_Num_base@std@@2_NB DB 00H			; std::_Num_base::is_modulo
CONST	ENDS
;	COMDAT ?is_integer@_Num_base@std@@2_NB
CONST	SEGMENT
?is_integer@_Num_base@std@@2_NB DB 00H			; std::_Num_base::is_integer
CONST	ENDS
;	COMDAT ?is_iec559@_Num_base@std@@2_NB
CONST	SEGMENT
?is_iec559@_Num_base@std@@2_NB DB 00H			; std::_Num_base::is_iec559
CONST	ENDS
;	COMDAT ?is_exact@_Num_base@std@@2_NB
CONST	SEGMENT
?is_exact@_Num_base@std@@2_NB DB 00H			; std::_Num_base::is_exact
CONST	ENDS
;	COMDAT ?is_bounded@_Num_base@std@@2_NB
CONST	SEGMENT
?is_bounded@_Num_base@std@@2_NB DB 00H			; std::_Num_base::is_bounded
CONST	ENDS
;	COMDAT ?has_signaling_NaN@_Num_base@std@@2_NB
CONST	SEGMENT
?has_signaling_NaN@_Num_base@std@@2_NB DB 00H		; std::_Num_base::has_signaling_NaN
CONST	ENDS
;	COMDAT ?has_quiet_NaN@_Num_base@std@@2_NB
CONST	SEGMENT
?has_quiet_NaN@_Num_base@std@@2_NB DB 00H		; std::_Num_base::has_quiet_NaN
CONST	ENDS
;	COMDAT ?has_infinity@_Num_base@std@@2_NB
CONST	SEGMENT
?has_infinity@_Num_base@std@@2_NB DB 00H		; std::_Num_base::has_infinity
CONST	ENDS
;	COMDAT ?has_denorm_loss@_Num_base@std@@2_NB
CONST	SEGMENT
?has_denorm_loss@_Num_base@std@@2_NB DB 00H		; std::_Num_base::has_denorm_loss
CONST	ENDS
;	COMDAT ?has_denorm@_Num_base@std@@2W4float_denorm_style@2@B
CONST	SEGMENT
?has_denorm@_Num_base@std@@2W4float_denorm_style@2@B DD 00H ; std::_Num_base::has_denorm
; Function compile flags: /Ogtp
; File c:\program files\microsoft visual studio 10.0\vc\include\utility
;	COMDAT ??$forward@VErrorInfo@Reader@Json@@@std@@YA$$QAVErrorInfo@Reader@Json@@AAV123@@Z
_TEXT	SEGMENT
??$forward@VErrorInfo@Reader@Json@@@std@@YA$$QAVErrorInfo@Reader@Json@@AAV123@@Z PROC ; std::forward<Json::Reader::ErrorInfo>, COMDAT
; __Arg$ = eax

; 79   : 	return ((_Ty&&)_Arg);
; 80   : 	}

	ret	0
??$forward@VErrorInfo@Reader@Json@@@std@@YA$$QAVErrorInfo@Reader@Json@@AAV123@@Z ENDP ; std::forward<Json::Reader::ErrorInfo>
; Function compile flags: /Ogtp
; File c:\program files\microsoft visual studio 10.0\vc\include\xutility
_TEXT	ENDS
;	COMDAT ??$_Fill_n@PAPAPAVValue@Json@@IPAPAV12@@std@@YAXPAPAPAVValue@Json@@IABQAPAV12@@Z
_TEXT	SEGMENT
??$_Fill_n@PAPAPAVValue@Json@@IPAPAV12@@std@@YAXPAPAPAVValue@Json@@IABQAPAV12@@Z PROC ; std::_Fill_n<Json::Value * * *,unsigned int,Json::Value * *>, COMDAT
; __Dest$ = ecx
; __Count$ = eax
; __Val$ = edx

; 2724 : 	for (; 0 < _Count; --_Count, ++_Dest)

	test	eax, eax
	je	SHORT $LN1@Fill_n
	push	esi
$LL3@Fill_n:

; 2725 : 		*_Dest = _Val;

	mov	esi, DWORD PTR [edx]
	mov	DWORD PTR [ecx], esi
	add	ecx, 4
	dec	eax
	jne	SHORT $LL3@Fill_n
	pop	esi
$LN1@Fill_n:

; 2726 : 	}

	ret	0
??$_Fill_n@PAPAPAVValue@Json@@IPAPAV12@@std@@YAXPAPAPAVValue@Json@@IABQAPAV12@@Z ENDP ; std::_Fill_n<Json::Value * * *,unsigned int,Json::Value * *>
; Function compile flags: /Ogtp
_TEXT	ENDS
;	COMDAT ??$_Fill_n@PAPAVErrorInfo@Reader@Json@@IPAV123@@std@@YAXPAPAVErrorInfo@Reader@Json@@IABQAV123@@Z
_TEXT	SEGMENT
??$_Fill_n@PAPAVErrorInfo@Reader@Json@@IPAV123@@std@@YAXPAPAVErrorInfo@Reader@Json@@IABQAV123@@Z PROC ; std::_Fill_n<Json::Reader::ErrorInfo * *,unsigned int,Json::Reader::ErrorInfo *>, COMDAT
; __Dest$ = ecx
; __Count$ = eax
; __Val$ = edx

; 2724 : 	for (; 0 < _Count; --_Count, ++_Dest)

	test	eax, eax
	je	SHORT $LN1@Fill_n@2
	push	esi
$LL3@Fill_n@2:

; 2725 : 		*_Dest = _Val;

	mov	esi, DWORD PTR [edx]
	mov	DWORD PTR [ecx], esi
	add	ecx, 4
	dec	eax
	jne	SHORT $LL3@Fill_n@2
	pop	esi
$LN1@Fill_n@2:

; 2726 : 	}

	ret	0
??$_Fill_n@PAPAVErrorInfo@Reader@Json@@IPAV123@@std@@YAXPAPAVErrorInfo@Reader@Json@@IABQAV123@@Z ENDP ; std::_Fill_n<Json::Reader::ErrorInfo * *,unsigned int,Json::Reader::ErrorInfo *>
; Function compile flags: /Ogtp
; File c:\program files\microsoft visual studio 10.0\vc\include\utility
_TEXT	ENDS
;	COMDAT ??$move@AAVErrorInfo@Reader@Json@@@std@@YA$$QAVErrorInfo@Reader@Json@@AAV123@@Z
_TEXT	SEGMENT
??$move@AAVErrorInfo@Reader@Json@@@std@@YA$$QAVErrorInfo@Reader@Json@@AAV123@@Z PROC ; std::move<Json::Reader::ErrorInfo &>, COMDAT
; __Arg$ = eax

; 87   : 	return ((typename tr1::_Remove_reference<_Ty>::_Type&&)_Arg);
; 88   : 	}

	ret	0
??$move@AAVErrorInfo@Reader@Json@@@std@@YA$$QAVErrorInfo@Reader@Json@@AAV123@@Z ENDP ; std::move<Json::Reader::ErrorInfo &>
; Function compile flags: /Ogtp
; File c:\program files\microsoft visual studio 10.0\vc\include\deque
_TEXT	ENDS
;	COMDAT ??F?$_Deque_const_iterator@VErrorInfo@Reader@Json@@V?$allocator@VErrorInfo@Reader@Json@@@std@@@std@@QAEAAV01@XZ
_TEXT	SEGMENT
??F?$_Deque_const_iterator@VErrorInfo@Reader@Json@@V?$allocator@VErrorInfo@Reader@Json@@@std@@@std@@QAEAAV01@XZ PROC ; std::_Deque_const_iterator<Json::Reader::ErrorInfo,std::allocator<Json::Reader::ErrorInfo> >::operator--, COMDAT
; _this$ = eax

; 394  :  #if _ITERATOR_DEBUG_LEVEL == 2
; 395  : 		_Mydeque *_Mycont = ((_Mydeque *)this->_Getcont());
; 396  : 		if (_Mycont == 0
; 397  : 			|| this->_Myoff <= _Mycont->_Myoff)
; 398  : 		{	// report error
; 399  : 		_DEBUG_ERROR("deque iterator not decrementable");
; 400  : 		_SCL_SECURE_OUT_OF_RANGE;
; 401  : 		}
; 402  : 
; 403  :  #elif _ITERATOR_DEBUG_LEVEL == 1
; 404  : 		_Mydeque *_Mycont = ((_Mydeque *)this->_Getcont());
; 405  : 		_SCL_SECURE_VALIDATE(_Mycont != 0);
; 406  : 		_SCL_SECURE_VALIDATE_RANGE(_Mycont->_Myoff < this->_Myoff);
; 407  :  #endif /* _ITERATOR_DEBUG_LEVEL */
; 408  : 
; 409  : 		--_Myoff;

	dec	DWORD PTR [eax+8]

; 410  : 		return (*this);
; 411  : 		}

	ret	0
??F?$_Deque_const_iterator@VErrorInfo@Reader@Json@@V?$allocator@VErrorInfo@Reader@Json@@@std@@@std@@QAEAAV01@XZ ENDP ; std::_Deque_const_iterator<Json::Reader::ErrorInfo,std::allocator<Json::Reader::ErrorInfo> >::operator--
; Function compile flags: /Ogtp
_TEXT	ENDS
;	COMDAT ??F?$_Deque_iterator@VErrorInfo@Reader@Json@@V?$allocator@VErrorInfo@Reader@Json@@@std@@@std@@QAEAAV01@XZ
_TEXT	SEGMENT
??F?$_Deque_iterator@VErrorInfo@Reader@Json@@V?$allocator@VErrorInfo@Reader@Json@@@std@@@std@@QAEAAV01@XZ PROC ; std::_Deque_iterator<Json::Reader::ErrorInfo,std::allocator<Json::Reader::ErrorInfo> >::operator--, COMDAT
; _this$ = eax

; 642  : 		--*(_Mybase *)this;

	dec	DWORD PTR [eax+8]

; 643  : 		return (*this);
; 644  : 		}

	ret	0
??F?$_Deque_iterator@VErrorInfo@Reader@Json@@V?$allocator@VErrorInfo@Reader@Json@@@std@@@std@@QAEAAV01@XZ ENDP ; std::_Deque_iterator<Json::Reader::ErrorInfo,std::allocator<Json::Reader::ErrorInfo> >::operator--
; Function compile flags: /Ogtp
; File c:\program files\microsoft visual studio 10.0\vc\include\xmemory
_TEXT	ENDS
;	COMDAT ??$_Destroy@U_Container_proxy@std@@@std@@YAXPAU_Container_proxy@0@@Z
_TEXT	SEGMENT
__Ptr$ = 8						; size = 4
??$_Destroy@U_Container_proxy@std@@@std@@YAXPAU_Container_proxy@0@@Z PROC ; std::_Destroy<std::_Container_proxy>, COMDAT

; 63   : 	_Ptr->~_Ty();
; 64   : 	}

	ret	0
??$_Destroy@U_Container_proxy@std@@@std@@YAXPAU_Container_proxy@0@@Z ENDP ; std::_Destroy<std::_Container_proxy>
; Function compile flags: /Ogtp
_TEXT	ENDS
;	COMDAT ??$_Destroy@PAVErrorInfo@Reader@Json@@@std@@YAXPAPAVErrorInfo@Reader@Json@@@Z
_TEXT	SEGMENT
__Ptr$ = 8						; size = 4
??$_Destroy@PAVErrorInfo@Reader@Json@@@std@@YAXPAPAVErrorInfo@Reader@Json@@@Z PROC ; std::_Destroy<Json::Reader::ErrorInfo *>, COMDAT

; 63   : 	_Ptr->~_Ty();
; 64   : 	}

	ret	0
??$_Destroy@PAVErrorInfo@Reader@Json@@@std@@YAXPAPAVErrorInfo@Reader@Json@@@Z ENDP ; std::_Destroy<Json::Reader::ErrorInfo *>
; Function compile flags: /Ogtp
_TEXT	ENDS
;	COMDAT ??$_Destroy@PAPAVValue@Json@@@std@@YAXPAPAPAVValue@Json@@@Z
_TEXT	SEGMENT
__Ptr$ = 8						; size = 4
??$_Destroy@PAPAVValue@Json@@@std@@YAXPAPAPAVValue@Json@@@Z PROC ; std::_Destroy<Json::Value * *>, COMDAT

; 63   : 	_Ptr->~_Ty();
; 64   : 	}

	ret	0
??$_Destroy@PAPAVValue@Json@@@std@@YAXPAPAPAVValue@Json@@@Z ENDP ; std::_Destroy<Json::Value * *>
; Function compile flags: /Ogtp
_TEXT	ENDS
;	COMDAT ??$_Destroy@PAVValue@Json@@@std@@YAXPAPAVValue@Json@@@Z
_TEXT	SEGMENT
__Ptr$ = 8						; size = 4
??$_Destroy@PAVValue@Json@@@std@@YAXPAPAVValue@Json@@@Z PROC ; std::_Destroy<Json::Value *>, COMDAT

; 63   : 	_Ptr->~_Ty();
; 64   : 	}

	ret	0
??$_Destroy@PAVValue@Json@@@std@@YAXPAPAVValue@Json@@@Z ENDP ; std::_Destroy<Json::Value *>
; Function compile flags: /Ogtp
_TEXT	ENDS
;	COMDAT ??$_Destroy_range@V?$allocator@PAPAVValue@Json@@@std@@@std@@YAXPAPAPAVValue@Json@@0AAV?$allocator@PAPAVValue@Json@@@0@U_Scalar_ptr_iterator_tag@0@@Z
_TEXT	SEGMENT
___formal$ = 8						; size = 1
??$_Destroy_range@V?$allocator@PAPAVValue@Json@@@std@@@std@@YAXPAPAPAVValue@Json@@0AAV?$allocator@PAPAVValue@Json@@@0@U_Scalar_ptr_iterator_tag@0@@Z PROC ; std::_Destroy_range<std::allocator<Json::Value * *> >, COMDAT

; 105  : 	}

	ret	0
??$_Destroy_range@V?$allocator@PAPAVValue@Json@@@std@@@std@@YAXPAPAPAVValue@Json@@0AAV?$allocator@PAPAVValue@Json@@@0@U_Scalar_ptr_iterator_tag@0@@Z ENDP ; std::_Destroy_range<std::allocator<Json::Value * *> >
; Function compile flags: /Ogtp
; File c:\program files\microsoft visual studio 10.0\vc\include\memory
_TEXT	ENDS
;	COMDAT ??$_Uninit_def_fill_n@PAPAVValue@Json@@IPAPAV12@PAPAV12@@std@@YAXPAPAPAVValue@Json@@IPBQAPAV12@AAV?$allocator@PAPAVValue@Json@@@0@0U_Scalar_ptr_iterator_tag@0@@Z
_TEXT	SEGMENT
___formal$ = 8						; size = 1
??$_Uninit_def_fill_n@PAPAVValue@Json@@IPAPAV12@PAPAV12@@std@@YAXPAPAPAVValue@Json@@IPBQAPAV12@AAV?$allocator@PAPAVValue@Json@@@0@0U_Scalar_ptr_iterator_tag@0@@Z PROC ; std::_Uninit_def_fill_n<Json::Value * *,unsigned int,Json::Value * *,Json::Value * *>, COMDAT
; __First$ = edx
; __Count$ = ecx

; 661  : 	_Fill_n(_First, _Count, (_Valty)0);

	test	ecx, ecx
	je	SHORT $LN5@Uninit_def
	push	edi
	xor	eax, eax
	mov	edi, edx
	rep stosd
	pop	edi
$LN5@Uninit_def:

; 662  : 	}

	ret	0
??$_Uninit_def_fill_n@PAPAVValue@Json@@IPAPAV12@PAPAV12@@std@@YAXPAPAPAVValue@Json@@IPBQAPAV12@AAV?$allocator@PAPAVValue@Json@@@0@0U_Scalar_ptr_iterator_tag@0@@Z ENDP ; std::_Uninit_def_fill_n<Json::Value * *,unsigned int,Json::Value * *,Json::Value * *>
; Function compile flags: /Ogtp
; File c:\program files\microsoft visual studio 10.0\vc\include\xutility
_TEXT	ENDS
;	COMDAT ??$_Val_type@PAPAPAVValue@Json@@@std@@YAPAPAPAVValue@Json@@PAPAPAV12@@Z
_TEXT	SEGMENT
??$_Val_type@PAPAPAVValue@Json@@@std@@YAPAPAPAVValue@Json@@PAPAPAV12@@Z PROC ; std::_Val_type<Json::Value * * *>, COMDAT

; 790  : 	return (0);

	xor	eax, eax

; 791  : 	}

	ret	0
??$_Val_type@PAPAPAVValue@Json@@@std@@YAPAPAPAVValue@Json@@PAPAPAV12@@Z ENDP ; std::_Val_type<Json::Value * * *>
; Function compile flags: /Ogtp
; File c:\program files\microsoft visual studio 10.0\vc\include\memory
_TEXT	ENDS
;	COMDAT ??$_Uninit_copy@PAPAVValue@Json@@PAPAV12@@std@@YAPAPAPAVValue@Json@@PAPAPAV12@00AAV?$allocator@PAPAVValue@Json@@@0@U_Scalar_ptr_iterator_tag@0@@Z
_TEXT	SEGMENT
__Dest$ = 8						; size = 4
___formal$ = 12						; size = 1
??$_Uninit_copy@PAPAVValue@Json@@PAPAV12@@std@@YAPAPAPAVValue@Json@@PAPAPAV12@00AAV?$allocator@PAPAVValue@Json@@@0@U_Scalar_ptr_iterator_tag@0@@Z PROC ; std::_Uninit_copy<Json::Value * *,Json::Value * *>, COMDAT
; __First$ = ecx
; __Last$ = eax

; 399  : 	{	// copy [_First, _Last) to raw _Dest, scalar type

	push	ebp
	mov	ebp, esp

; 400  : 	_DEBUG_RANGE(_First, _Last);
; 401  : 	_DEBUG_POINTER(_Dest);
; 402  : 	size_t _Count = (size_t)(_Last - _First);

	sub	eax, ecx
	push	esi
	sar	eax, 2

; 403  : 	return ((_Ty2 *)_CSTD memmove(&*_Dest, &*_First,
; 404  : 		_Count * sizeof (*_First)) + _Count);	// NB: non-overlapping move

	lea	esi, DWORD PTR [eax*4]
	mov	eax, DWORD PTR __Dest$[ebp]
	push	esi
	push	ecx
	push	eax
	call	_memmove
	add	esp, 12					; 0000000cH
	add	eax, esi
	pop	esi

; 405  : 	}

	pop	ebp
	ret	0
??$_Uninit_copy@PAPAVValue@Json@@PAPAV12@@std@@YAPAPAPAVValue@Json@@PAPAPAV12@00AAV?$allocator@PAPAVValue@Json@@@0@U_Scalar_ptr_iterator_tag@0@@Z ENDP ; std::_Uninit_copy<Json::Value * *,Json::Value * *>
; Function compile flags: /Ogtp
; File c:\program files\microsoft visual studio 10.0\vc\include\xutility
_TEXT	ENDS
;	COMDAT ??$_Ptr_cat@PAPAVValue@Json@@PAPAV12@@std@@YA?AU_Scalar_ptr_iterator_tag@0@PAPAPAVValue@Json@@0@Z
_TEXT	SEGMENT
__Cat$ = -1						; size = 1
??$_Ptr_cat@PAPAVValue@Json@@PAPAV12@@std@@YA?AU_Scalar_ptr_iterator_tag@0@PAPAPAVValue@Json@@0@Z PROC ; std::_Ptr_cat<Json::Value * *,Json::Value * *>, COMDAT

; 516  : 	{	// return pointer category from pointers

	push	ebp
	mov	ebp, esp
	push	ecx

; 517  : 	typename _Ptr_cat_helper<_Elem1, _Elem2>::_Type _Cat;
; 518  : 	return (_Cat);

	mov	al, BYTE PTR __Cat$[ebp]

; 519  : 	}

	mov	esp, ebp
	pop	ebp
	ret	0
??$_Ptr_cat@PAPAVValue@Json@@PAPAV12@@std@@YA?AU_Scalar_ptr_iterator_tag@0@PAPAPAVValue@Json@@0@Z ENDP ; std::_Ptr_cat<Json::Value * *,Json::Value * *>
; Function compile flags: /Ogtp
; File c:\program files\microsoft visual studio 10.0\vc\include\utility
_TEXT	ENDS
;	COMDAT ??$forward@U_Container_proxy@std@@@std@@YA$$QAU_Container_proxy@0@AAU10@@Z
_TEXT	SEGMENT
??$forward@U_Container_proxy@std@@@std@@YA$$QAU_Container_proxy@0@AAU10@@Z PROC ; std::forward<std::_Container_proxy>, COMDAT
; __Arg$ = eax

; 79   : 	return ((_Ty&&)_Arg);
; 80   : 	}

	ret	0
??$forward@U_Container_proxy@std@@@std@@YA$$QAU_Container_proxy@0@AAU10@@Z ENDP ; std::forward<std::_Container_proxy>
; Function compile flags: /Ogtp
; File c:\program files\microsoft visual studio 10.0\vc\include\xmemory
_TEXT	ENDS
;	COMDAT ??$_Destroy_range@V?$allocator@PAVErrorInfo@Reader@Json@@@std@@@std@@YAXPAPAVErrorInfo@Reader@Json@@0AAV?$allocator@PAVErrorInfo@Reader@Json@@@0@U_Scalar_ptr_iterator_tag@0@@Z
_TEXT	SEGMENT
___formal$ = 8						; size = 1
??$_Destroy_range@V?$allocator@PAVErrorInfo@Reader@Json@@@std@@@std@@YAXPAPAVErrorInfo@Reader@Json@@0AAV?$allocator@PAVErrorInfo@Reader@Json@@@0@U_Scalar_ptr_iterator_tag@0@@Z PROC ; std::_Destroy_range<std::allocator<Json::Reader::ErrorInfo *> >, COMDAT

; 105  : 	}

	ret	0
??$_Destroy_range@V?$allocator@PAVErrorInfo@Reader@Json@@@std@@@std@@YAXPAPAVErrorInfo@Reader@Json@@0AAV?$allocator@PAVErrorInfo@Reader@Json@@@0@U_Scalar_ptr_iterator_tag@0@@Z ENDP ; std::_Destroy_range<std::allocator<Json::Reader::ErrorInfo *> >
; Function compile flags: /Ogtp
; File c:\program files\microsoft visual studio 10.0\vc\include\memory
_TEXT	ENDS
;	COMDAT ??$_Uninit_def_fill_n@PAVErrorInfo@Reader@Json@@IPAV123@PAV123@@std@@YAXPAPAVErrorInfo@Reader@Json@@IPBQAV123@AAV?$allocator@PAVErrorInfo@Reader@Json@@@0@0U_Scalar_ptr_iterator_tag@0@@Z
_TEXT	SEGMENT
___formal$ = 8						; size = 1
??$_Uninit_def_fill_n@PAVErrorInfo@Reader@Json@@IPAV123@PAV123@@std@@YAXPAPAVErrorInfo@Reader@Json@@IPBQAV123@AAV?$allocator@PAVErrorInfo@Reader@Json@@@0@0U_Scalar_ptr_iterator_tag@0@@Z PROC ; std::_Uninit_def_fill_n<Json::Reader::ErrorInfo *,unsigned int,Json::Reader::ErrorInfo *,Json::Reader::ErrorInfo *>, COMDAT
; __First$ = edx
; __Count$ = ecx

; 661  : 	_Fill_n(_First, _Count, (_Valty)0);

	test	ecx, ecx
	je	SHORT $LN5@Uninit_def@2
	push	edi
	xor	eax, eax
	mov	edi, edx
	rep stosd
	pop	edi
$LN5@Uninit_def@2:

; 662  : 	}

	ret	0
??$_Uninit_def_fill_n@PAVErrorInfo@Reader@Json@@IPAV123@PAV123@@std@@YAXPAPAVErrorInfo@Reader@Json@@IPBQAV123@AAV?$allocator@PAVErrorInfo@Reader@Json@@@0@0U_Scalar_ptr_iterator_tag@0@@Z ENDP ; std::_Uninit_def_fill_n<Json::Reader::ErrorInfo *,unsigned int,Json::Reader::ErrorInfo *,Json::Reader::ErrorInfo *>
; Function compile flags: /Ogtp
; File c:\program files\microsoft visual studio 10.0\vc\include\xutility
_TEXT	ENDS
;	COMDAT ??$_Val_type@PAPAVErrorInfo@Reader@Json@@@std@@YAPAPAVErrorInfo@Reader@Json@@PAPAV123@@Z
_TEXT	SEGMENT
??$_Val_type@PAPAVErrorInfo@Reader@Json@@@std@@YAPAPAVErrorInfo@Reader@Json@@PAPAV123@@Z PROC ; std::_Val_type<Json::Reader::ErrorInfo * *>, COMDAT

; 790  : 	return (0);

	xor	eax, eax

; 791  : 	}

	ret	0
??$_Val_type@PAPAVErrorInfo@Reader@Json@@@std@@YAPAPAVErrorInfo@Reader@Json@@PAPAV123@@Z ENDP ; std::_Val_type<Json::Reader::ErrorInfo * *>
; Function compile flags: /Ogtp
; File c:\program files\microsoft visual studio 10.0\vc\include\memory
_TEXT	ENDS
;	COMDAT ??$_Uninit_copy@PAVErrorInfo@Reader@Json@@PAV123@@std@@YAPAPAVErrorInfo@Reader@Json@@PAPAV123@00AAV?$allocator@PAVErrorInfo@Reader@Json@@@0@U_Scalar_ptr_iterator_tag@0@@Z
_TEXT	SEGMENT
__Dest$ = 8						; size = 4
___formal$ = 12						; size = 1
??$_Uninit_copy@PAVErrorInfo@Reader@Json@@PAV123@@std@@YAPAPAVErrorInfo@Reader@Json@@PAPAV123@00AAV?$allocator@PAVErrorInfo@Reader@Json@@@0@U_Scalar_ptr_iterator_tag@0@@Z PROC ; std::_Uninit_copy<Json::Reader::ErrorInfo *,Json::Reader::ErrorInfo *>, COMDAT
; __First$ = ecx
; __Last$ = eax

; 399  : 	{	// copy [_First, _Last) to raw _Dest, scalar type

	push	ebp
	mov	ebp, esp

; 400  : 	_DEBUG_RANGE(_First, _Last);
; 401  : 	_DEBUG_POINTER(_Dest);
; 402  : 	size_t _Count = (size_t)(_Last - _First);

	sub	eax, ecx
	push	esi
	sar	eax, 2

; 403  : 	return ((_Ty2 *)_CSTD memmove(&*_Dest, &*_First,
; 404  : 		_Count * sizeof (*_First)) + _Count);	// NB: non-overlapping move

	lea	esi, DWORD PTR [eax*4]
	mov	eax, DWORD PTR __Dest$[ebp]
	push	esi
	push	ecx
	push	eax
	call	_memmove
	add	esp, 12					; 0000000cH
	add	eax, esi
	pop	esi

; 405  : 	}

	pop	ebp
	ret	0
??$_Uninit_copy@PAVErrorInfo@Reader@Json@@PAV123@@std@@YAPAPAVErrorInfo@Reader@Json@@PAPAV123@00AAV?$allocator@PAVErrorInfo@Reader@Json@@@0@U_Scalar_ptr_iterator_tag@0@@Z ENDP ; std::_Uninit_copy<Json::Reader::ErrorInfo *,Json::Reader::ErrorInfo *>
; Function compile flags: /Ogtp
; File c:\program files\microsoft visual studio 10.0\vc\include\xutility
_TEXT	ENDS
;	COMDAT ??$_Ptr_cat@PAVErrorInfo@Reader@Json@@PAV123@@std@@YA?AU_Scalar_ptr_iterator_tag@0@PAPAVErrorInfo@Reader@Json@@0@Z
_TEXT	SEGMENT
__Cat$ = -1						; size = 1
??$_Ptr_cat@PAVErrorInfo@Reader@Json@@PAV123@@std@@YA?AU_Scalar_ptr_iterator_tag@0@PAPAVErrorInfo@Reader@Json@@0@Z PROC ; std::_Ptr_cat<Json::Reader::ErrorInfo *,Json::Reader::ErrorInfo *>, COMDAT

; 516  : 	{	// return pointer category from pointers

	push	ebp
	mov	ebp, esp
	push	ecx

; 517  : 	typename _Ptr_cat_helper<_Elem1, _Elem2>::_Type _Cat;
; 518  : 	return (_Cat);

	mov	al, BYTE PTR __Cat$[ebp]

; 519  : 	}

	mov	esp, ebp
	pop	ebp
	ret	0
??$_Ptr_cat@PAVErrorInfo@Reader@Json@@PAV123@@std@@YA?AU_Scalar_ptr_iterator_tag@0@PAPAVErrorInfo@Reader@Json@@0@Z ENDP ; std::_Ptr_cat<Json::Reader::ErrorInfo *,Json::Reader::ErrorInfo *>
; Function compile flags: /Ogtp
_TEXT	ENDS
;	COMDAT ??$_Ptr_cat@V?$_Deque_iterator@VErrorInfo@Reader@Json@@V?$allocator@VErrorInfo@Reader@Json@@@std@@@std@@V12@@std@@YA?AU_Nonscalar_ptr_iterator_tag@0@AAV?$_Deque_iterator@VErrorInfo@Reader@Json@@V?$allocator@VErrorInfo@Reader@Json@@@std@@@0@0@Z
_TEXT	SEGMENT
__Cat$ = -1						; size = 1
??$_Ptr_cat@V?$_Deque_iterator@VErrorInfo@Reader@Json@@V?$allocator@VErrorInfo@Reader@Json@@@std@@@std@@V12@@std@@YA?AU_Nonscalar_ptr_iterator_tag@0@AAV?$_Deque_iterator@VErrorInfo@Reader@Json@@V?$allocator@VErrorInfo@Reader@Json@@@std@@@0@0@Z PROC ; std::_Ptr_cat<std::_Deque_iterator<Json::Reader::ErrorInfo,std::allocator<Json::Reader::ErrorInfo> >,std::_Deque_iterator<Json::Reader::ErrorInfo,std::allocator<Json::Reader::ErrorInfo> > >, COMDAT

; 485  : 	{	// return pointer category from arbitrary arguments

	push	ebp
	mov	ebp, esp
	push	ecx

; 486  : 	_Nonscalar_ptr_iterator_tag _Cat;
; 487  : 	return (_Cat);

	mov	al, BYTE PTR __Cat$[ebp]

; 488  : 	}

	mov	esp, ebp
	pop	ebp
	ret	0
??$_Ptr_cat@V?$_Deque_iterator@VErrorInfo@Reader@Json@@V?$allocator@VErrorInfo@Reader@Json@@@std@@@std@@V12@@std@@YA?AU_Nonscalar_ptr_iterator_tag@0@AAV?$_Deque_iterator@VErrorInfo@Reader@Json@@V?$allocator@VErrorInfo@Reader@Json@@@std@@@0@0@Z ENDP ; std::_Ptr_cat<std::_Deque_iterator<Json::Reader::ErrorInfo,std::allocator<Json::Reader::ErrorInfo> >,std::_Deque_iterator<Json::Reader::ErrorInfo,std::allocator<Json::Reader::ErrorInfo> > >
; Function compile flags: /Ogtp
; File c:\program files\microsoft visual studio 10.0\vc\include\xmemory
_TEXT	ENDS
;	COMDAT ??$?8DD@std@@YA_NABV?$allocator@D@0@0@Z
_TEXT	SEGMENT
___formal$ = 8						; size = 4
___formal$ = 12						; size = 4
??$?8DD@std@@YA_NABV?$allocator@D@0@0@Z PROC		; std::operator==<char,char>, COMDAT

; 263  : 	return (true);

	mov	al, 1

; 264  : 	}

	ret	0
??$?8DD@std@@YA_NABV?$allocator@D@0@0@Z ENDP		; std::operator==<char,char>
; Function compile flags: /Ogtp
; File c:\program files\microsoft visual studio 10.0\vc\include\utility
_TEXT	ENDS
;	COMDAT ??$forward@ABVErrorInfo@Reader@Json@@@std@@YAABVErrorInfo@Reader@Json@@ABV123@@Z
_TEXT	SEGMENT
??$forward@ABVErrorInfo@Reader@Json@@@std@@YAABVErrorInfo@Reader@Json@@ABV123@@Z PROC ; std::forward<Json::Reader::ErrorInfo const &>, COMDAT
; __Arg$ = eax

; 79   : 	return ((_Ty&&)_Arg);
; 80   : 	}

	ret	0
??$forward@ABVErrorInfo@Reader@Json@@@std@@YAABVErrorInfo@Reader@Json@@ABV123@@Z ENDP ; std::forward<Json::Reader::ErrorInfo const &>
; Function compile flags: /Ogtp
; File c:\program files\microsoft visual studio 10.0\vc\include\xutility
_TEXT	ENDS
;	COMDAT ??$_Ptr_cat@VErrorInfo@Reader@Json@@V123@@std@@YA?AU_Nonscalar_ptr_iterator_tag@0@PAVErrorInfo@Reader@Json@@0@Z
_TEXT	SEGMENT
__Cat$ = -1						; size = 1
??$_Ptr_cat@VErrorInfo@Reader@Json@@V123@@std@@YA?AU_Nonscalar_ptr_iterator_tag@0@PAVErrorInfo@Reader@Json@@0@Z PROC ; std::_Ptr_cat<Json::Reader::ErrorInfo,Json::Reader::ErrorInfo>, COMDAT

; 516  : 	{	// return pointer category from pointers

	push	ebp
	mov	ebp, esp
	push	ecx

; 517  : 	typename _Ptr_cat_helper<_Elem1, _Elem2>::_Type _Cat;
; 518  : 	return (_Cat);

	mov	al, BYTE PTR __Cat$[ebp]

; 519  : 	}

	mov	esp, ebp
	pop	ebp
	ret	0
??$_Ptr_cat@VErrorInfo@Reader@Json@@V123@@std@@YA?AU_Nonscalar_ptr_iterator_tag@0@PAVErrorInfo@Reader@Json@@0@Z ENDP ; std::_Ptr_cat<Json::Reader::ErrorInfo,Json::Reader::ErrorInfo>
; Function compile flags: /Ogtp
_TEXT	ENDS
;	COMDAT ??$_Val_type@PAVErrorInfo@Reader@Json@@@std@@YAPAVErrorInfo@Reader@Json@@PAV123@@Z
_TEXT	SEGMENT
??$_Val_type@PAVErrorInfo@Reader@Json@@@std@@YAPAVErrorInfo@Reader@Json@@PAV123@@Z PROC ; std::_Val_type<Json::Reader::ErrorInfo *>, COMDAT

; 790  : 	return (0);

	xor	eax, eax

; 791  : 	}

	ret	0
??$_Val_type@PAVErrorInfo@Reader@Json@@@std@@YAPAVErrorInfo@Reader@Json@@PAV123@@Z ENDP ; std::_Val_type<Json::Reader::ErrorInfo *>
; Function compile flags: /Ogtp
; File c:\program files\microsoft visual studio 10.0\vc\include\utility
_TEXT	ENDS
;	COMDAT ??$move@AAV?$basic_string@DU?$char_traits@D@std@@V?$allocator@D@2@@std@@@std@@YA$$QAV?$basic_string@DU?$char_traits@D@std@@V?$allocator@D@2@@0@AAV10@@Z
_TEXT	SEGMENT
__Arg$ = 8						; size = 4
??$move@AAV?$basic_string@DU?$char_traits@D@std@@V?$allocator@D@2@@std@@@std@@YA$$QAV?$basic_string@DU?$char_traits@D@std@@V?$allocator@D@2@@0@AAV10@@Z PROC ; std::move<std::basic_string<char,std::char_traits<char>,std::allocator<char> > &>, COMDAT

; 86   : 	{	// forward _Arg as movable

	push	ebp
	mov	ebp, esp

; 87   : 	return ((typename tr1::_Remove_reference<_Ty>::_Type&&)_Arg);

	mov	eax, DWORD PTR __Arg$[ebp]

; 88   : 	}

	pop	ebp
	ret	0
??$move@AAV?$basic_string@DU?$char_traits@D@std@@V?$allocator@D@2@@std@@@std@@YA$$QAV?$basic_string@DU?$char_traits@D@std@@V?$allocator@D@2@@0@AAV10@@Z ENDP ; std::move<std::basic_string<char,std::char_traits<char>,std::allocator<char> > &>
; Function compile flags: /Ogtp
; File c:\program files\microsoft visual studio 10.0\vc\include\xmemory
_TEXT	ENDS
;	COMDAT ?destroy@?$allocator@U_Container_proxy@std@@@std@@QAEXPAU_Container_proxy@2@@Z
_TEXT	SEGMENT
__Ptr$ = 8						; size = 4
?destroy@?$allocator@U_Container_proxy@std@@@std@@QAEXPAU_Container_proxy@2@@Z PROC ; std::allocator<std::_Container_proxy>::destroy, COMDAT
; _this$ = ecx

; 213  : 		_Destroy(_Ptr);
; 214  : 		}

	ret	4
?destroy@?$allocator@U_Container_proxy@std@@@std@@QAEXPAU_Container_proxy@2@@Z ENDP ; std::allocator<std::_Container_proxy>::destroy
; Function compile flags: /Ogtp
_TEXT	ENDS
;	COMDAT ?destroy@?$allocator@PAVErrorInfo@Reader@Json@@@std@@QAEXPAPAVErrorInfo@Reader@Json@@@Z
_TEXT	SEGMENT
__Ptr$ = 8						; size = 4
?destroy@?$allocator@PAVErrorInfo@Reader@Json@@@std@@QAEXPAPAVErrorInfo@Reader@Json@@@Z PROC ; std::allocator<Json::Reader::ErrorInfo *>::destroy, COMDAT
; _this$ = ecx

; 213  : 		_Destroy(_Ptr);
; 214  : 		}

	ret	4
?destroy@?$allocator@PAVErrorInfo@Reader@Json@@@std@@QAEXPAPAVErrorInfo@Reader@Json@@@Z ENDP ; std::allocator<Json::Reader::ErrorInfo *>::destroy
; Function compile flags: /Ogtp
_TEXT	ENDS
;	COMDAT ?destroy@?$allocator@PAPAVValue@Json@@@std@@QAEXPAPAPAVValue@Json@@@Z
_TEXT	SEGMENT
__Ptr$ = 8						; size = 4
?destroy@?$allocator@PAPAVValue@Json@@@std@@QAEXPAPAPAVValue@Json@@@Z PROC ; std::allocator<Json::Value * *>::destroy, COMDAT
; _this$ = ecx

; 213  : 		_Destroy(_Ptr);
; 214  : 		}

	ret	4
?destroy@?$allocator@PAPAVValue@Json@@@std@@QAEXPAPAPAVValue@Json@@@Z ENDP ; std::allocator<Json::Value * *>::destroy
; Function compile flags: /Ogtp
_TEXT	ENDS
;	COMDAT ?destroy@?$allocator@PAVValue@Json@@@std@@QAEXPAPAVValue@Json@@@Z
_TEXT	SEGMENT
__Ptr$ = 8						; size = 4
?destroy@?$allocator@PAVValue@Json@@@std@@QAEXPAPAVValue@Json@@@Z PROC ; std::allocator<Json::Value *>::destroy, COMDAT
; _this$ = ecx

; 213  : 		_Destroy(_Ptr);
; 214  : 		}

	ret	4
?destroy@?$allocator@PAVValue@Json@@@std@@QAEXPAPAVValue@Json@@@Z ENDP ; std::allocator<Json::Value *>::destroy
; Function compile flags: /Ogtp
_TEXT	ENDS
;	COMDAT ??0bad_alloc@std@@QAE@ABV01@@Z
_TEXT	SEGMENT
___that$ = 8						; size = 4
??0bad_alloc@std@@QAE@ABV01@@Z PROC			; std::bad_alloc::bad_alloc, COMDAT
; _this$ = ecx
	push	ebp
	mov	ebp, esp
	mov	eax, DWORD PTR ___that$[ebp]
	push	esi
	push	eax
	mov	esi, ecx
	call	??0exception@std@@QAE@ABV01@@Z		; std::exception::exception
	mov	DWORD PTR [esi], OFFSET ??_7bad_alloc@std@@6B@
	mov	eax, esi
	pop	esi
	pop	ebp
	ret	4
??0bad_alloc@std@@QAE@ABV01@@Z ENDP			; std::bad_alloc::bad_alloc
; Function compile flags: /Ogtp
_TEXT	ENDS
;	COMDAT ??$?0PAVValue@Json@@@?$allocator@PAPAVValue@Json@@@std@@QAE@ABV?$allocator@PAVValue@Json@@@1@@Z
_TEXT	SEGMENT
??$?0PAVValue@Json@@@?$allocator@PAPAVValue@Json@@@std@@QAE@ABV?$allocator@PAVValue@Json@@@1@@Z PROC ; std::allocator<Json::Value * *>::allocator<Json::Value * *><Json::Value *>, COMDAT
; _this$ = eax

; 171  : 		{	// construct from a related allocator (do nothing)
; 172  : 		}

	ret	0
??$?0PAVValue@Json@@@?$allocator@PAPAVValue@Json@@@std@@QAE@ABV?$allocator@PAVValue@Json@@@1@@Z ENDP ; std::allocator<Json::Value * *>::allocator<Json::Value * *><Json::Value *>
; Function compile flags: /Ogtp
_TEXT	ENDS
;	COMDAT ??$_Destroy_range@V?$allocator@PAPAVValue@Json@@@std@@@std@@YAXPAPAPAVValue@Json@@0AAV?$allocator@PAPAVValue@Json@@@0@@Z
_TEXT	SEGMENT
??$_Destroy_range@V?$allocator@PAPAVValue@Json@@@std@@@std@@YAXPAPAPAVValue@Json@@0AAV?$allocator@PAPAVValue@Json@@@0@@Z PROC ; std::_Destroy_range<std::allocator<Json::Value * *> >, COMDAT

; 88   : 	_Destroy_range(_First, _Last, _Al, _Ptr_cat(_First, _Last));
; 89   : 	}

	ret	0
??$_Destroy_range@V?$allocator@PAPAVValue@Json@@@std@@@std@@YAXPAPAPAVValue@Json@@0AAV?$allocator@PAPAVValue@Json@@@0@@Z ENDP ; std::_Destroy_range<std::allocator<Json::Value * *> >
; Function compile flags: /Ogtp
; File c:\program files\microsoft visual studio 10.0\vc\include\memory
_TEXT	ENDS
;	COMDAT ??$_Uninitialized_default_fill_n@PAPAPAVValue@Json@@IPAPAV12@V?$allocator@PAPAVValue@Json@@@std@@@std@@YAXPAPAPAVValue@Json@@IPBQAPAV12@AAV?$allocator@PAPAVValue@Json@@@0@@Z
_TEXT	SEGMENT
??$_Uninitialized_default_fill_n@PAPAPAVValue@Json@@IPAPAV12@V?$allocator@PAPAVValue@Json@@@std@@@std@@YAXPAPAPAVValue@Json@@IPBQAPAV12@AAV?$allocator@PAPAVValue@Json@@@0@@Z PROC ; std::_Uninitialized_default_fill_n<Json::Value * * *,unsigned int,Json::Value * *,std::allocator<Json::Value * *> >, COMDAT
; __First$ = edx
; __Count$ = ecx

; 671  : 	_Uninit_def_fill_n(_First, _Count, _Pval, _Al,
; 672  : 		_Val_type(_First), _Ptr_cat(_First, _First));

	test	ecx, ecx
	je	SHORT $LN11@Uninitiali
	push	edi
	xor	eax, eax
	mov	edi, edx
	rep stosd
	pop	edi
$LN11@Uninitiali:

; 673  : 	}

	ret	0
??$_Uninitialized_default_fill_n@PAPAPAVValue@Json@@IPAPAV12@V?$allocator@PAPAVValue@Json@@@std@@@std@@YAXPAPAPAVValue@Json@@IPBQAPAV12@AAV?$allocator@PAPAVValue@Json@@@0@@Z ENDP ; std::_Uninitialized_default_fill_n<Json::Value * * *,unsigned int,Json::Value * *,std::allocator<Json::Value * *> >
; Function compile flags: /Ogtp
_TEXT	ENDS
;	COMDAT ??$_Uninitialized_copy@PAPAPAVValue@Json@@PAPAPAV12@V?$allocator@PAPAVValue@Json@@@std@@@std@@YAPAPAPAVValue@Json@@PAPAPAV12@00AAV?$allocator@PAPAVValue@Json@@@0@@Z
_TEXT	SEGMENT
__Dest$ = 8						; size = 4
??$_Uninitialized_copy@PAPAPAVValue@Json@@PAPAPAV12@V?$allocator@PAPAVValue@Json@@@std@@@std@@YAPAPAPAVValue@Json@@PAPAPAV12@00AAV?$allocator@PAPAVValue@Json@@@0@@Z PROC ; std::_Uninitialized_copy<Json::Value * * *,Json::Value * * *,std::allocator<Json::Value * *> >, COMDAT
; __First$ = ecx
; __Last$ = eax

; 412  : 	{	// copy [_First, _Last) to raw _Dest, using _Al

	push	ebp
	mov	ebp, esp

; 413  : 	return (_Uninit_copy(_First, _Last, _Dest, _Al,
; 414  : 		_Ptr_cat(_First, _Dest)));

	sub	eax, ecx
	push	esi
	sar	eax, 2
	lea	esi, DWORD PTR [eax*4]
	mov	eax, DWORD PTR __Dest$[ebp]
	push	esi
	push	ecx
	push	eax
	call	_memmove
	add	esp, 12					; 0000000cH
	add	eax, esi
	pop	esi

; 415  : 	}

	pop	ebp
	ret	0
??$_Uninitialized_copy@PAPAPAVValue@Json@@PAPAPAV12@V?$allocator@PAPAVValue@Json@@@std@@@std@@YAPAPAPAVValue@Json@@PAPAPAV12@00AAV?$allocator@PAPAVValue@Json@@@0@@Z ENDP ; std::_Uninitialized_copy<Json::Value * * *,Json::Value * * *,std::allocator<Json::Value * *> >
; Function compile flags: /Ogtp
; File c:\program files\microsoft visual studio 10.0\vc\include\xmemory
_TEXT	ENDS
;	COMDAT ??$?0VErrorInfo@Reader@Json@@@?$allocator@U_Container_proxy@std@@@std@@QAE@ABV?$allocator@VErrorInfo@Reader@Json@@@1@@Z
_TEXT	SEGMENT
___formal$ = 8						; size = 4
??$?0VErrorInfo@Reader@Json@@@?$allocator@U_Container_proxy@std@@@std@@QAE@ABV?$allocator@VErrorInfo@Reader@Json@@@1@@Z PROC ; std::allocator<std::_Container_proxy>::allocator<std::_Container_proxy><Json::Reader::ErrorInfo>, COMDAT
; _this$ = ecx

; 170  : 		_ALLOCATOR(const _ALLOCATOR<_Other>&) _THROW0()

	mov	eax, ecx

; 171  : 		{	// construct from a related allocator (do nothing)
; 172  : 		}

	ret	4
??$?0VErrorInfo@Reader@Json@@@?$allocator@U_Container_proxy@std@@@std@@QAE@ABV?$allocator@VErrorInfo@Reader@Json@@@1@@Z ENDP ; std::allocator<std::_Container_proxy>::allocator<std::_Container_proxy><Json::Reader::ErrorInfo>
; Function compile flags: /Ogtp
_TEXT	ENDS
;	COMDAT ??$?0VErrorInfo@Reader@Json@@@?$allocator@PAVErrorInfo@Reader@Json@@@std@@QAE@ABV?$allocator@VErrorInfo@Reader@Json@@@1@@Z
_TEXT	SEGMENT
??$?0VErrorInfo@Reader@Json@@@?$allocator@PAVErrorInfo@Reader@Json@@@std@@QAE@ABV?$allocator@VErrorInfo@Reader@Json@@@1@@Z PROC ; std::allocator<Json::Reader::ErrorInfo *>::allocator<Json::Reader::ErrorInfo *><Json::Reader::ErrorInfo>, COMDAT
; _this$ = eax

; 171  : 		{	// construct from a related allocator (do nothing)
; 172  : 		}

	ret	0
??$?0VErrorInfo@Reader@Json@@@?$allocator@PAVErrorInfo@Reader@Json@@@std@@QAE@ABV?$allocator@VErrorInfo@Reader@Json@@@1@@Z ENDP ; std::allocator<Json::Reader::ErrorInfo *>::allocator<Json::Reader::ErrorInfo *><Json::Reader::ErrorInfo>
; Function compile flags: /Ogtp
_TEXT	ENDS
;	COMDAT ??$_Dest_val@V?$allocator@PAVErrorInfo@Reader@Json@@@std@@PAVErrorInfo@Reader@Json@@@std@@YAXAAV?$allocator@PAVErrorInfo@Reader@Json@@@0@PAPAVErrorInfo@Reader@Json@@@Z
_TEXT	SEGMENT
__Alval$ = 8						; size = 4
__Pdest$ = 12						; size = 4
??$_Dest_val@V?$allocator@PAVErrorInfo@Reader@Json@@@std@@PAVErrorInfo@Reader@Json@@@std@@YAXAAV?$allocator@PAVErrorInfo@Reader@Json@@@0@PAPAVErrorInfo@Reader@Json@@@Z PROC ; std::_Dest_val<std::allocator<Json::Reader::ErrorInfo *>,Json::Reader::ErrorInfo *>, COMDAT

; 287  : 	_Alval.destroy(_Pdest);
; 288  : 	}

	ret	0
??$_Dest_val@V?$allocator@PAVErrorInfo@Reader@Json@@@std@@PAVErrorInfo@Reader@Json@@@std@@YAXAAV?$allocator@PAVErrorInfo@Reader@Json@@@0@PAPAVErrorInfo@Reader@Json@@@Z ENDP ; std::_Dest_val<std::allocator<Json::Reader::ErrorInfo *>,Json::Reader::ErrorInfo *>
; Function compile flags: /Ogtp
_TEXT	ENDS
;	COMDAT ??$_Destroy_range@V?$allocator@PAVErrorInfo@Reader@Json@@@std@@@std@@YAXPAPAVErrorInfo@Reader@Json@@0AAV?$allocator@PAVErrorInfo@Reader@Json@@@0@@Z
_TEXT	SEGMENT
??$_Destroy_range@V?$allocator@PAVErrorInfo@Reader@Json@@@std@@@std@@YAXPAPAVErrorInfo@Reader@Json@@0AAV?$allocator@PAVErrorInfo@Reader@Json@@@0@@Z PROC ; std::_Destroy_range<std::allocator<Json::Reader::ErrorInfo *> >, COMDAT

; 88   : 	_Destroy_range(_First, _Last, _Al, _Ptr_cat(_First, _Last));
; 89   : 	}

	ret	0
??$_Destroy_range@V?$allocator@PAVErrorInfo@Reader@Json@@@std@@@std@@YAXPAPAVErrorInfo@Reader@Json@@0AAV?$allocator@PAVErrorInfo@Reader@Json@@@0@@Z ENDP ; std::_Destroy_range<std::allocator<Json::Reader::ErrorInfo *> >
; Function compile flags: /Ogtp
; File c:\program files\microsoft visual studio 10.0\vc\include\memory
_TEXT	ENDS
;	COMDAT ??$_Uninitialized_default_fill_n@PAPAVErrorInfo@Reader@Json@@IPAV123@V?$allocator@PAVErrorInfo@Reader@Json@@@std@@@std@@YAXPAPAVErrorInfo@Reader@Json@@IPBQAV123@AAV?$allocator@PAVErrorInfo@Reader@Json@@@0@@Z
_TEXT	SEGMENT
??$_Uninitialized_default_fill_n@PAPAVErrorInfo@Reader@Json@@IPAV123@V?$allocator@PAVErrorInfo@Reader@Json@@@std@@@std@@YAXPAPAVErrorInfo@Reader@Json@@IPBQAV123@AAV?$allocator@PAVErrorInfo@Reader@Json@@@0@@Z PROC ; std::_Uninitialized_default_fill_n<Json::Reader::ErrorInfo * *,unsigned int,Json::Reader::ErrorInfo *,std::allocator<Json::Reader::ErrorInfo *> >, COMDAT
; __First$ = edx
; __Count$ = ecx

; 671  : 	_Uninit_def_fill_n(_First, _Count, _Pval, _Al,
; 672  : 		_Val_type(_First), _Ptr_cat(_First, _First));

	test	ecx, ecx
	je	SHORT $LN11@Uninitiali@2
	push	edi
	xor	eax, eax
	mov	edi, edx
	rep stosd
	pop	edi
$LN11@Uninitiali@2:

; 673  : 	}

	ret	0
??$_Uninitialized_default_fill_n@PAPAVErrorInfo@Reader@Json@@IPAV123@V?$allocator@PAVErrorInfo@Reader@Json@@@std@@@std@@YAXPAPAVErrorInfo@Reader@Json@@IPBQAV123@AAV?$allocator@PAVErrorInfo@Reader@Json@@@0@@Z ENDP ; std::_Uninitialized_default_fill_n<Json::Reader::ErrorInfo * *,unsigned int,Json::Reader::ErrorInfo *,std::allocator<Json::Reader::ErrorInfo *> >
; Function compile flags: /Ogtp
_TEXT	ENDS
;	COMDAT ??$_Uninitialized_copy@PAPAVErrorInfo@Reader@Json@@PAPAV123@V?$allocator@PAVErrorInfo@Reader@Json@@@std@@@std@@YAPAPAVErrorInfo@Reader@Json@@PAPAV123@00AAV?$allocator@PAVErrorInfo@Reader@Json@@@0@@Z
_TEXT	SEGMENT
__Dest$ = 8						; size = 4
??$_Uninitialized_copy@PAPAVErrorInfo@Reader@Json@@PAPAV123@V?$allocator@PAVErrorInfo@Reader@Json@@@std@@@std@@YAPAPAVErrorInfo@Reader@Json@@PAPAV123@00AAV?$allocator@PAVErrorInfo@Reader@Json@@@0@@Z PROC ; std::_Uninitialized_copy<Json::Reader::ErrorInfo * *,Json::Reader::ErrorInfo * *,std::allocator<Json::Reader::ErrorInfo *> >, COMDAT
; __First$ = ecx
; __Last$ = eax

; 412  : 	{	// copy [_First, _Last) to raw _Dest, using _Al

	push	ebp
	mov	ebp, esp

; 413  : 	return (_Uninit_copy(_First, _Last, _Dest, _Al,
; 414  : 		_Ptr_cat(_First, _Dest)));

	sub	eax, ecx
	push	esi
	sar	eax, 2
	lea	esi, DWORD PTR [eax*4]
	mov	eax, DWORD PTR __Dest$[ebp]
	push	esi
	push	ecx
	push	eax
	call	_memmove
	add	esp, 12					; 0000000cH
	add	eax, esi
	pop	esi

; 415  : 	}

	pop	ebp
	ret	0
??$_Uninitialized_copy@PAPAVErrorInfo@Reader@Json@@PAPAV123@V?$allocator@PAVErrorInfo@Reader@Json@@@std@@@std@@YAPAPAVErrorInfo@Reader@Json@@PAPAV123@00AAV?$allocator@PAVErrorInfo@Reader@Json@@@0@@Z ENDP ; std::_Uninitialized_copy<Json::Reader::ErrorInfo * *,Json::Reader::ErrorInfo * *,std::allocator<Json::Reader::ErrorInfo *> >
; Function compile flags: /Ogtp
; File c:\program files\microsoft visual studio 10.0\vc\include\xmemory
_TEXT	ENDS
;	COMDAT ??$_Dest_val@V?$allocator@U_Container_proxy@std@@@std@@U_Container_proxy@2@@std@@YAXAAV?$allocator@U_Container_proxy@std@@@0@PAU_Container_proxy@0@@Z
_TEXT	SEGMENT
__Alval$ = 8						; size = 4
__Pdest$ = 12						; size = 4
??$_Dest_val@V?$allocator@U_Container_proxy@std@@@std@@U_Container_proxy@2@@std@@YAXAAV?$allocator@U_Container_proxy@std@@@0@PAU_Container_proxy@0@@Z PROC ; std::_Dest_val<std::allocator<std::_Container_proxy>,std::_Container_proxy>, COMDAT

; 287  : 	_Alval.destroy(_Pdest);
; 288  : 	}

	ret	0
??$_Dest_val@V?$allocator@U_Container_proxy@std@@@std@@U_Container_proxy@2@@std@@YAXAAV?$allocator@U_Container_proxy@std@@@0@PAU_Container_proxy@0@@Z ENDP ; std::_Dest_val<std::allocator<std::_Container_proxy>,std::_Container_proxy>
; Function compile flags: /Ogtp
_TEXT	ENDS
;	COMDAT ??$?0PAVValue@Json@@@?$allocator@U_Container_proxy@std@@@std@@QAE@ABV?$allocator@PAVValue@Json@@@1@@Z
_TEXT	SEGMENT
___formal$ = 8						; size = 4
??$?0PAVValue@Json@@@?$allocator@U_Container_proxy@std@@@std@@QAE@ABV?$allocator@PAVValue@Json@@@1@@Z PROC ; std::allocator<std::_Container_proxy>::allocator<std::_Container_proxy><Json::Value *>, COMDAT
; _this$ = ecx

; 170  : 		_ALLOCATOR(const _ALLOCATOR<_Other>&) _THROW0()

	mov	eax, ecx

; 171  : 		{	// construct from a related allocator (do nothing)
; 172  : 		}

	ret	4
??$?0PAVValue@Json@@@?$allocator@U_Container_proxy@std@@@std@@QAE@ABV?$allocator@PAVValue@Json@@@1@@Z ENDP ; std::allocator<std::_Container_proxy>::allocator<std::_Container_proxy><Json::Value *>
; Function compile flags: /Ogtp
_TEXT	ENDS
;	COMDAT ??$_Dest_val@V?$allocator@PAPAVValue@Json@@@std@@PAPAVValue@Json@@@std@@YAXAAV?$allocator@PAPAVValue@Json@@@0@PAPAPAVValue@Json@@@Z
_TEXT	SEGMENT
__Alval$ = 8						; size = 4
__Pdest$ = 12						; size = 4
??$_Dest_val@V?$allocator@PAPAVValue@Json@@@std@@PAPAVValue@Json@@@std@@YAXAAV?$allocator@PAPAVValue@Json@@@0@PAPAPAVValue@Json@@@Z PROC ; std::_Dest_val<std::allocator<Json::Value * *>,Json::Value * *>, COMDAT

; 287  : 	_Alval.destroy(_Pdest);
; 288  : 	}

	ret	0
??$_Dest_val@V?$allocator@PAPAVValue@Json@@@std@@PAPAVValue@Json@@@std@@YAXAAV?$allocator@PAPAVValue@Json@@@0@PAPAPAVValue@Json@@@Z ENDP ; std::_Dest_val<std::allocator<Json::Value * *>,Json::Value * *>
; Function compile flags: /Ogtp
_TEXT	ENDS
;	COMDAT ??$_Dest_val@V?$allocator@PAVValue@Json@@@std@@PAVValue@Json@@@std@@YAXAAV?$allocator@PAVValue@Json@@@0@PAPAVValue@Json@@@Z
_TEXT	SEGMENT
__Alval$ = 8						; size = 4
__Pdest$ = 12						; size = 4
??$_Dest_val@V?$allocator@PAVValue@Json@@@std@@PAVValue@Json@@@std@@YAXAAV?$allocator@PAVValue@Json@@@0@PAPAVValue@Json@@@Z PROC ; std::_Dest_val<std::allocator<Json::Value *>,Json::Value *>, COMDAT

; 287  : 	_Alval.destroy(_Pdest);
; 288  : 	}

	ret	0
??$_Dest_val@V?$allocator@PAVValue@Json@@@std@@PAVValue@Json@@@std@@YAXAAV?$allocator@PAVValue@Json@@@0@PAPAVValue@Json@@@Z ENDP ; std::_Dest_val<std::allocator<Json::Value *>,Json::Value *>
; Function compile flags: /Ogtp
; File c:\program files\microsoft visual studio 10.0\vc\include\utility
_TEXT	ENDS
;	COMDAT ??$forward@PAVValue@Json@@@std@@YA$$QAPAVValue@Json@@AAPAV12@@Z
_TEXT	SEGMENT
??$forward@PAVValue@Json@@@std@@YA$$QAPAVValue@Json@@AAPAV12@@Z PROC ; std::forward<Json::Value *>, COMDAT
; __Arg$ = eax

; 79   : 	return ((_Ty&&)_Arg);
; 80   : 	}

	ret	0
??$forward@PAVValue@Json@@@std@@YA$$QAPAVValue@Json@@AAPAV12@@Z ENDP ; std::forward<Json::Value *>
; Function compile flags: /Ogtp
; File c:\program files\microsoft visual studio 10.0\vc\include\xmemory
_TEXT	ENDS
;	COMDAT ??$?9DD@std@@YA_NABV?$allocator@D@0@0@Z
_TEXT	SEGMENT
__Left$ = 8						; size = 4
__Right$ = 12						; size = 4
??$?9DD@std@@YA_NABV?$allocator@D@0@0@Z PROC		; std::operator!=<char,char>, COMDAT

; 271  : 	return (!(_Left == _Right));

	xor	al, al

; 272  : 	}

	ret	0
??$?9DD@std@@YA_NABV?$allocator@D@0@0@Z ENDP		; std::operator!=<char,char>
; Function compile flags: /Ogtp
; File c:\program files\microsoft visual studio 10.0\vc\include\utility
_TEXT	ENDS
;	COMDAT ??$move@AAPAVValue@Json@@@std@@YA$$QAPAVValue@Json@@AAPAV12@@Z
_TEXT	SEGMENT
??$move@AAPAVValue@Json@@@std@@YA$$QAPAVValue@Json@@AAPAV12@@Z PROC ; std::move<Json::Value * &>, COMDAT
; __Arg$ = eax

; 87   : 	return ((typename tr1::_Remove_reference<_Ty>::_Type&&)_Arg);
; 88   : 	}

	ret	0
??$move@AAPAVValue@Json@@@std@@YA$$QAPAVValue@Json@@AAPAV12@@Z ENDP ; std::move<Json::Value * &>
; Function compile flags: /Ogtp
_TEXT	ENDS
;	COMDAT ??$forward@V?$basic_string@DU?$char_traits@D@std@@V?$allocator@D@2@@std@@@std@@YA$$QAV?$basic_string@DU?$char_traits@D@std@@V?$allocator@D@2@@0@AAV10@@Z
_TEXT	SEGMENT
__Arg$ = 8						; size = 4
??$forward@V?$basic_string@DU?$char_traits@D@std@@V?$allocator@D@2@@std@@@std@@YA$$QAV?$basic_string@DU?$char_traits@D@std@@V?$allocator@D@2@@0@AAV10@@Z PROC ; std::forward<std::basic_string<char,std::char_traits<char>,std::allocator<char> > >, COMDAT

; 78   : 	{	// forward _Arg, given explicitly specified type parameter

	push	ebp
	mov	ebp, esp

; 79   : 	return ((_Ty&&)_Arg);

	mov	eax, DWORD PTR __Arg$[ebp]

; 80   : 	}

	pop	ebp
	ret	0
??$forward@V?$basic_string@DU?$char_traits@D@std@@V?$allocator@D@2@@std@@@std@@YA$$QAV?$basic_string@DU?$char_traits@D@std@@V?$allocator@D@2@@0@AAV10@@Z ENDP ; std::forward<std::basic_string<char,std::char_traits<char>,std::allocator<char> > >
; Function compile flags: /Ogtp
_TEXT	ENDS
;	COMDAT ??$forward@V?$allocator@D@std@@@std@@YA$$QAV?$allocator@D@0@AAV10@@Z
_TEXT	SEGMENT
__Arg$ = 8						; size = 4
??$forward@V?$allocator@D@std@@@std@@YA$$QAV?$allocator@D@0@AAV10@@Z PROC ; std::forward<std::allocator<char> >, COMDAT

; 78   : 	{	// forward _Arg, given explicitly specified type parameter

	push	ebp
	mov	ebp, esp

; 79   : 	return ((_Ty&&)_Arg);

	mov	eax, DWORD PTR __Arg$[ebp]

; 80   : 	}

	pop	ebp
	ret	0
??$forward@V?$allocator@D@std@@@std@@YA$$QAV?$allocator@D@0@AAV10@@Z ENDP ; std::forward<std::allocator<char> >
; Function compile flags: /Ogtp
; File c:\program files\microsoft visual studio 10.0\vc\include\deque
_TEXT	ENDS
;	COMDAT ??Y?$_Deque_iterator@PAVValue@Json@@V?$allocator@PAVValue@Json@@@std@@@std@@QAEAAV01@H@Z
_TEXT	SEGMENT
??Y?$_Deque_iterator@PAVValue@Json@@V?$allocator@PAVValue@Json@@@std@@@std@@QAEAAV01@H@Z PROC ; std::_Deque_iterator<Json::Value *,std::allocator<Json::Value *> >::operator+=, COMDAT
; _this$ = eax

; 655  : 		this->_Myoff += _Off;

	dec	DWORD PTR [eax+8]

; 656  : 		return (*this);
; 657  : 		}

	ret	0
??Y?$_Deque_iterator@PAVValue@Json@@V?$allocator@PAVValue@Json@@@std@@@std@@QAEAAV01@H@Z ENDP ; std::_Deque_iterator<Json::Value *,std::allocator<Json::Value *> >::operator+=
; Function compile flags: /Ogtp
; File c:\program files\microsoft visual studio 10.0\vc\include\xmemory
_TEXT	ENDS
;	COMDAT ?max_size@?$allocator@PAVValue@Json@@@std@@QBEIXZ
_TEXT	SEGMENT
?max_size@?$allocator@PAVValue@Json@@@std@@QBEIXZ PROC	; std::allocator<Json::Value *>::max_size, COMDAT

; 218  : 		_SIZT _Count = (_SIZT)(-1) / sizeof (_Ty);
; 219  : 		return (0 < _Count ? _Count : 1);

	mov	eax, 1073741823				; 3fffffffH

; 220  : 		}

	ret	0
?max_size@?$allocator@PAVValue@Json@@@std@@QBEIXZ ENDP	; std::allocator<Json::Value *>::max_size
; Function compile flags: /Ogtp
; File c:\program files\microsoft visual studio 10.0\vc\include\deque
_TEXT	ENDS
;	COMDAT ??Z?$_Deque_iterator@PAVValue@Json@@V?$allocator@PAVValue@Json@@@std@@@std@@QAEAAV01@H@Z
_TEXT	SEGMENT
??Z?$_Deque_iterator@PAVValue@Json@@V?$allocator@PAVValue@Json@@@std@@@std@@QAEAAV01@H@Z PROC ; std::_Deque_iterator<Json::Value *,std::allocator<Json::Value *> >::operator-=, COMDAT
; _this$ = eax

; 667  : 		return (*this += -_Off);

	dec	DWORD PTR [eax+8]

; 668  : 		}

	ret	0
??Z?$_Deque_iterator@PAVValue@Json@@V?$allocator@PAVValue@Json@@@std@@@std@@QAEAAV01@H@Z ENDP ; std::_Deque_iterator<Json::Value *,std::allocator<Json::Value *> >::operator-=
; Function compile flags: /Ogtp
; File c:\program files\microsoft visual studio 10.0\vc\include\xmemory
_TEXT	ENDS
;	COMDAT ?max_size@?$allocator@VErrorInfo@Reader@Json@@@std@@QBEIXZ
_TEXT	SEGMENT
?max_size@?$allocator@VErrorInfo@Reader@Json@@@std@@QBEIXZ PROC ; std::allocator<Json::Reader::ErrorInfo>::max_size, COMDAT

; 218  : 		_SIZT _Count = (_SIZT)(-1) / sizeof (_Ty);
; 219  : 		return (0 < _Count ? _Count : 1);

	mov	eax, 97612893				; 05d1745dH

; 220  : 		}

	ret	0
?max_size@?$allocator@VErrorInfo@Reader@Json@@@std@@QBEIXZ ENDP ; std::allocator<Json::Reader::ErrorInfo>::max_size
; Function compile flags: /Ogtp
_TEXT	ENDS
;	COMDAT ??0?$allocator@PAVValue@Json@@@std@@QAE@ABV01@@Z
_TEXT	SEGMENT
??0?$allocator@PAVValue@Json@@@std@@QAE@ABV01@@Z PROC	; std::allocator<Json::Value *>::allocator<Json::Value *>, COMDAT
; _this$ = eax

; 166  : 		{	// construct by copying (do nothing)
; 167  : 		}

	ret	0
??0?$allocator@PAVValue@Json@@@std@@QAE@ABV01@@Z ENDP	; std::allocator<Json::Value *>::allocator<Json::Value *>
; Function compile flags: /Ogtp
; File c:\program files\microsoft visual studio 10.0\vc\include\deque
_TEXT	ENDS
;	COMDAT ?_Xlen@?$deque@PAVValue@Json@@V?$allocator@PAVValue@Json@@@std@@@std@@IBEXXZ
_TEXT	SEGMENT
?_Xlen@?$deque@PAVValue@Json@@V?$allocator@PAVValue@Json@@@std@@@std@@IBEXXZ PROC ; std::deque<Json::Value *,std::allocator<Json::Value *> >::_Xlen, COMDAT

; 1580 : 		_Xlength_error("deque<T> too long");

	push	OFFSET ??_C@_0BC@KBDMBKEH@deque?$DMT?$DO?5too?5long?$AA@
	call	?_Xlength_error@std@@YAXPBD@Z		; std::_Xlength_error
$LN4@Xlen@2:
$LN3@Xlen@2:
	int	3
?_Xlen@?$deque@PAVValue@Json@@V?$allocator@PAVValue@Json@@@std@@@std@@IBEXXZ ENDP ; std::deque<Json::Value *,std::allocator<Json::Value *> >::_Xlen
; Function compile flags: /Ogtp
_TEXT	ENDS
;	COMDAT ?max_size@?$deque@PAVValue@Json@@V?$allocator@PAVValue@Json@@@std@@@std@@QBEIXZ
_TEXT	SEGMENT
?max_size@?$deque@PAVValue@Json@@V?$allocator@PAVValue@Json@@@std@@@std@@QBEIXZ PROC ; std::deque<Json::Value *,std::allocator<Json::Value *> >::max_size, COMDAT

; 1155 : 		return (this->_Alval.max_size());

	mov	eax, 1073741823				; 3fffffffH

; 1156 : 		}

	ret	0
?max_size@?$deque@PAVValue@Json@@V?$allocator@PAVValue@Json@@@std@@@std@@QBEIXZ ENDP ; std::deque<Json::Value *,std::allocator<Json::Value *> >::max_size
; Function compile flags: /Ogtp
; File c:\program files\microsoft visual studio 10.0\vc\include\xmemory
_TEXT	ENDS
;	COMDAT ?max_size@?$allocator@D@std@@QBEIXZ
_TEXT	SEGMENT
?max_size@?$allocator@D@std@@QBEIXZ PROC		; std::allocator<char>::max_size, COMDAT
; _this$ = ecx

; 218  : 		_SIZT _Count = (_SIZT)(-1) / sizeof (_Ty);
; 219  : 		return (0 < _Count ? _Count : 1);

	or	eax, -1

; 220  : 		}

	ret	0
?max_size@?$allocator@D@std@@QBEIXZ ENDP		; std::allocator<char>::max_size
; Function compile flags: /Ogtp
_TEXT	ENDS
;	COMDAT ?deallocate@?$allocator@U_Container_proxy@std@@@std@@QAEXPAU_Container_proxy@2@I@Z
_TEXT	SEGMENT
__Ptr$ = 8						; size = 4
___formal$ = 12						; size = 4
?deallocate@?$allocator@U_Container_proxy@std@@@std@@QAEXPAU_Container_proxy@2@I@Z PROC ; std::allocator<std::_Container_proxy>::deallocate, COMDAT
; _this$ = ecx

; 181  : 		{	// deallocate object at _Ptr, ignore size

	push	ebp
	mov	ebp, esp

; 182  : 		::operator delete(_Ptr);

	mov	eax, DWORD PTR __Ptr$[ebp]
	push	eax
	call	??3@YAXPAX@Z				; operator delete
	add	esp, 4

; 183  : 		}

	pop	ebp
	ret	8
?deallocate@?$allocator@U_Container_proxy@std@@@std@@QAEXPAU_Container_proxy@2@I@Z ENDP ; std::allocator<std::_Container_proxy>::deallocate
; Function compile flags: /Ogtp
; File c:\program files\microsoft visual studio 10.0\vc\include\deque
_TEXT	ENDS
;	COMDAT ??Y?$_Deque_iterator@VErrorInfo@Reader@Json@@V?$allocator@VErrorInfo@Reader@Json@@@std@@@std@@QAEAAV01@H@Z
_TEXT	SEGMENT
??Y?$_Deque_iterator@VErrorInfo@Reader@Json@@V?$allocator@VErrorInfo@Reader@Json@@@std@@@std@@QAEAAV01@H@Z PROC ; std::_Deque_iterator<Json::Reader::ErrorInfo,std::allocator<Json::Reader::ErrorInfo> >::operator+=, COMDAT
; _this$ = eax
; __Off$ = ecx

; 655  : 		this->_Myoff += _Off;

	add	DWORD PTR [eax+8], ecx

; 656  : 		return (*this);
; 657  : 		}

	ret	0
??Y?$_Deque_iterator@VErrorInfo@Reader@Json@@V?$allocator@VErrorInfo@Reader@Json@@@std@@@std@@QAEAAV01@H@Z ENDP ; std::_Deque_iterator<Json::Reader::ErrorInfo,std::allocator<Json::Reader::ErrorInfo> >::operator+=
; Function compile flags: /Ogtp
_TEXT	ENDS
;	COMDAT ?_Compat@?$_Deque_const_iterator@VErrorInfo@Reader@Json@@V?$allocator@VErrorInfo@Reader@Json@@@std@@@std@@QBEXABV12@@Z
_TEXT	SEGMENT
?_Compat@?$_Deque_const_iterator@VErrorInfo@Reader@Json@@V?$allocator@VErrorInfo@Reader@Json@@@std@@@std@@QBEXABV12@@Z PROC ; std::_Deque_const_iterator<Json::Reader::ErrorInfo,std::allocator<Json::Reader::ErrorInfo> >::_Compat, COMDAT

; 538  : 		}

	ret	0
?_Compat@?$_Deque_const_iterator@VErrorInfo@Reader@Json@@V?$allocator@VErrorInfo@Reader@Json@@@std@@@std@@QBEXABV12@@Z ENDP ; std::_Deque_const_iterator<Json::Reader::ErrorInfo,std::allocator<Json::Reader::ErrorInfo> >::_Compat
; Function compile flags: /Ogtp
; File c:\program files\microsoft visual studio 10.0\vc\include\xmemory
_TEXT	ENDS
;	COMDAT ?deallocate@?$allocator@PAVErrorInfo@Reader@Json@@@std@@QAEXPAPAVErrorInfo@Reader@Json@@I@Z
_TEXT	SEGMENT
__Ptr$ = 8						; size = 4
___formal$ = 12						; size = 4
?deallocate@?$allocator@PAVErrorInfo@Reader@Json@@@std@@QAEXPAPAVErrorInfo@Reader@Json@@I@Z PROC ; std::allocator<Json::Reader::ErrorInfo *>::deallocate, COMDAT
; _this$ = ecx

; 181  : 		{	// deallocate object at _Ptr, ignore size

	push	ebp
	mov	ebp, esp

; 182  : 		::operator delete(_Ptr);

	mov	eax, DWORD PTR __Ptr$[ebp]
	push	eax
	call	??3@YAXPAX@Z				; operator delete
	add	esp, 4

; 183  : 		}

	pop	ebp
	ret	8
?deallocate@?$allocator@PAVErrorInfo@Reader@Json@@@std@@QAEXPAPAVErrorInfo@Reader@Json@@I@Z ENDP ; std::allocator<Json::Reader::ErrorInfo *>::deallocate
; Function compile flags: /Ogtp
_TEXT	ENDS
;	COMDAT ?deallocate@?$allocator@VErrorInfo@Reader@Json@@@std@@QAEXPAVErrorInfo@Reader@Json@@I@Z
_TEXT	SEGMENT
__Ptr$ = 8						; size = 4
___formal$ = 12						; size = 4
?deallocate@?$allocator@VErrorInfo@Reader@Json@@@std@@QAEXPAVErrorInfo@Reader@Json@@I@Z PROC ; std::allocator<Json::Reader::ErrorInfo>::deallocate, COMDAT
; _this$ = ecx

; 181  : 		{	// deallocate object at _Ptr, ignore size

	push	ebp
	mov	ebp, esp

; 182  : 		::operator delete(_Ptr);

	mov	eax, DWORD PTR __Ptr$[ebp]
	push	eax
	call	??3@YAXPAX@Z				; operator delete
	add	esp, 4

; 183  : 		}

	pop	ebp
	ret	8
?deallocate@?$allocator@VErrorInfo@Reader@Json@@@std@@QAEXPAVErrorInfo@Reader@Json@@I@Z ENDP ; std::allocator<Json::Reader::ErrorInfo>::deallocate
; Function compile flags: /Ogtp
_TEXT	ENDS
;	COMDAT ??0?$allocator@VErrorInfo@Reader@Json@@@std@@QAE@ABV01@@Z
_TEXT	SEGMENT
??0?$allocator@VErrorInfo@Reader@Json@@@std@@QAE@ABV01@@Z PROC ; std::allocator<Json::Reader::ErrorInfo>::allocator<Json::Reader::ErrorInfo>, COMDAT
; _this$ = eax

; 166  : 		{	// construct by copying (do nothing)
; 167  : 		}

	ret	0
??0?$allocator@VErrorInfo@Reader@Json@@@std@@QAE@ABV01@@Z ENDP ; std::allocator<Json::Reader::ErrorInfo>::allocator<Json::Reader::ErrorInfo>
; Function compile flags: /Ogtp
; File c:\program files\microsoft visual studio 10.0\vc\include\deque
_TEXT	ENDS
;	COMDAT ?_Xlen@?$deque@VErrorInfo@Reader@Json@@V?$allocator@VErrorInfo@Reader@Json@@@std@@@std@@IBEXXZ
_TEXT	SEGMENT
?_Xlen@?$deque@VErrorInfo@Reader@Json@@V?$allocator@VErrorInfo@Reader@Json@@@std@@@std@@IBEXXZ PROC ; std::deque<Json::Reader::ErrorInfo,std::allocator<Json::Reader::ErrorInfo> >::_Xlen, COMDAT

; 1580 : 		_Xlength_error("deque<T> too long");

	push	OFFSET ??_C@_0BC@KBDMBKEH@deque?$DMT?$DO?5too?5long?$AA@
	call	?_Xlength_error@std@@YAXPBD@Z		; std::_Xlength_error
$LN4@Xlen@3:
$LN3@Xlen@3:
	int	3
?_Xlen@?$deque@VErrorInfo@Reader@Json@@V?$allocator@VErrorInfo@Reader@Json@@@std@@@std@@IBEXXZ ENDP ; std::deque<Json::Reader::ErrorInfo,std::allocator<Json::Reader::ErrorInfo> >::_Xlen
; Function compile flags: /Ogtp
_TEXT	ENDS
;	COMDAT ?empty@?$deque@VErrorInfo@Reader@Json@@V?$allocator@VErrorInfo@Reader@Json@@@std@@@std@@QBE_NXZ
_TEXT	SEGMENT
?empty@?$deque@VErrorInfo@Reader@Json@@V?$allocator@VErrorInfo@Reader@Json@@@std@@@std@@QBE_NXZ PROC ; std::deque<Json::Reader::ErrorInfo,std::allocator<Json::Reader::ErrorInfo> >::empty, COMDAT
; _this$ = ecx

; 1160 : 		return (this->_Mysize == 0);

	xor	eax, eax
	cmp	DWORD PTR [ecx+16], eax
	sete	al

; 1161 : 		}

	ret	0
?empty@?$deque@VErrorInfo@Reader@Json@@V?$allocator@VErrorInfo@Reader@Json@@@std@@@std@@QBE_NXZ ENDP ; std::deque<Json::Reader::ErrorInfo,std::allocator<Json::Reader::ErrorInfo> >::empty
; Function compile flags: /Ogtp
_TEXT	ENDS
;	COMDAT ?max_size@?$deque@VErrorInfo@Reader@Json@@V?$allocator@VErrorInfo@Reader@Json@@@std@@@std@@QBEIXZ
_TEXT	SEGMENT
?max_size@?$deque@VErrorInfo@Reader@Json@@V?$allocator@VErrorInfo@Reader@Json@@@std@@@std@@QBEIXZ PROC ; std::deque<Json::Reader::ErrorInfo,std::allocator<Json::Reader::ErrorInfo> >::max_size, COMDAT

; 1155 : 		return (this->_Alval.max_size());

	mov	eax, 97612893				; 05d1745dH

; 1156 : 		}

	ret	0
?max_size@?$deque@VErrorInfo@Reader@Json@@V?$allocator@VErrorInfo@Reader@Json@@@std@@@std@@QBEIXZ ENDP ; std::deque<Json::Reader::ErrorInfo,std::allocator<Json::Reader::ErrorInfo> >::max_size
; Function compile flags: /Ogtp
; File c:\program files\microsoft visual studio 10.0\vc\include\xmemory
_TEXT	ENDS
;	COMDAT ?deallocate@?$allocator@PAPAVValue@Json@@@std@@QAEXPAPAPAVValue@Json@@I@Z
_TEXT	SEGMENT
__Ptr$ = 8						; size = 4
___formal$ = 12						; size = 4
?deallocate@?$allocator@PAPAVValue@Json@@@std@@QAEXPAPAPAVValue@Json@@I@Z PROC ; std::allocator<Json::Value * *>::deallocate, COMDAT
; _this$ = ecx

; 181  : 		{	// deallocate object at _Ptr, ignore size

	push	ebp
	mov	ebp, esp

; 182  : 		::operator delete(_Ptr);

	mov	eax, DWORD PTR __Ptr$[ebp]
	push	eax
	call	??3@YAXPAX@Z				; operator delete
	add	esp, 4

; 183  : 		}

	pop	ebp
	ret	8
?deallocate@?$allocator@PAPAVValue@Json@@@std@@QAEXPAPAPAVValue@Json@@I@Z ENDP ; std::allocator<Json::Value * *>::deallocate
; Function compile flags: /Ogtp
_TEXT	ENDS
;	COMDAT ?deallocate@?$allocator@PAVValue@Json@@@std@@QAEXPAPAVValue@Json@@I@Z
_TEXT	SEGMENT
__Ptr$ = 8						; size = 4
___formal$ = 12						; size = 4
?deallocate@?$allocator@PAVValue@Json@@@std@@QAEXPAPAVValue@Json@@I@Z PROC ; std::allocator<Json::Value *>::deallocate, COMDAT
; _this$ = ecx

; 181  : 		{	// deallocate object at _Ptr, ignore size

	push	ebp
	mov	ebp, esp

; 182  : 		::operator delete(_Ptr);

	mov	eax, DWORD PTR __Ptr$[ebp]
	push	eax
	call	??3@YAXPAX@Z				; operator delete
	add	esp, 4

; 183  : 		}

	pop	ebp
	ret	8
?deallocate@?$allocator@PAVValue@Json@@@std@@QAEXPAPAVValue@Json@@I@Z ENDP ; std::allocator<Json::Value *>::deallocate
; Function compile flags: /Ogtp
_TEXT	ENDS
;	COMDAT ??0?$allocator@PAVValue@Json@@@std@@QAE@XZ
_TEXT	SEGMENT
??0?$allocator@PAVValue@Json@@@std@@QAE@XZ PROC		; std::allocator<Json::Value *>::allocator<Json::Value *>, COMDAT
; _this$ = eax

; 162  : 		{	// construct default allocator (do nothing)
; 163  : 		}

	ret	0
??0?$allocator@PAVValue@Json@@@std@@QAE@XZ ENDP		; std::allocator<Json::Value *>::allocator<Json::Value *>
; Function compile flags: /Ogtp
; File c:\program files\microsoft visual studio 10.0\vc\include\ios
_TEXT	ENDS
;	COMDAT ?tie@?$basic_ios@DU?$char_traits@D@std@@@std@@QBEPAV?$basic_ostream@DU?$char_traits@D@std@@@2@XZ
_TEXT	SEGMENT
?tie@?$basic_ios@DU?$char_traits@D@std@@@std@@QBEPAV?$basic_ostream@DU?$char_traits@D@std@@@2@XZ PROC ; std::basic_ios<char,std::char_traits<char> >::tie, COMDAT
; _this$ = eax

; 74   : 		return (_Tiestr);

	mov	eax, DWORD PTR [eax+60]

; 75   : 		}

	ret	0
?tie@?$basic_ios@DU?$char_traits@D@std@@@std@@QBEPAV?$basic_ostream@DU?$char_traits@D@std@@@2@XZ ENDP ; std::basic_ios<char,std::char_traits<char> >::tie
; Function compile flags: /Ogtp
; File c:\program files\microsoft visual studio 10.0\vc\include\xmemory
_TEXT	ENDS
;	COMDAT ?deallocate@?$allocator@D@std@@QAEXPADI@Z
_TEXT	SEGMENT
__Ptr$ = 8						; size = 4
___formal$ = 12						; size = 4
?deallocate@?$allocator@D@std@@QAEXPADI@Z PROC		; std::allocator<char>::deallocate, COMDAT
; _this$ = ecx

; 181  : 		{	// deallocate object at _Ptr, ignore size

	push	ebp
	mov	ebp, esp

; 182  : 		::operator delete(_Ptr);

	mov	eax, DWORD PTR __Ptr$[ebp]
	push	eax
	call	??3@YAXPAX@Z				; operator delete
	add	esp, 4

; 183  : 		}

	pop	ebp
	ret	8
?deallocate@?$allocator@D@std@@QAEXPADI@Z ENDP		; std::allocator<char>::deallocate
; Function compile flags: /Ogtp
; File c:\program files\microsoft visual studio 10.0\vc\include\xstring
_TEXT	ENDS
;	COMDAT ?_Xran@?$basic_string@DU?$char_traits@D@std@@V?$allocator@D@2@@std@@QBEXXZ
_TEXT	SEGMENT
?_Xran@?$basic_string@DU?$char_traits@D@std@@V?$allocator@D@2@@std@@QBEXXZ PROC ; std::basic_string<char,std::char_traits<char>,std::allocator<char> >::_Xran, COMDAT
; _this$ = ecx

; 2020 : 		_Xout_of_range("invalid string position");

	push	OFFSET ??_C@_0BI@CFPLBAOH@invalid?5string?5position?$AA@
	call	?_Xout_of_range@std@@YAXPBD@Z		; std::_Xout_of_range
$LN4@Xran:
$LN3@Xran:
	int	3
?_Xran@?$basic_string@DU?$char_traits@D@std@@V?$allocator@D@2@@std@@QBEXXZ ENDP ; std::basic_string<char,std::char_traits<char>,std::allocator<char> >::_Xran
; Function compile flags: /Ogtp
_TEXT	ENDS
;	COMDAT ?_Xlen@?$basic_string@DU?$char_traits@D@std@@V?$allocator@D@2@@std@@QBEXXZ
_TEXT	SEGMENT
?_Xlen@?$basic_string@DU?$char_traits@D@std@@V?$allocator@D@2@@std@@QBEXXZ PROC ; std::basic_string<char,std::char_traits<char>,std::allocator<char> >::_Xlen, COMDAT
; _this$ = ecx

; 2015 : 		_Xlength_error("string too long");

	push	OFFSET ??_C@_0BA@JFNIOLAK@string?5too?5long?$AA@
	call	?_Xlength_error@std@@YAXPBD@Z		; std::_Xlength_error
$LN4@Xlen@4:
$LN3@Xlen@4:
	int	3
?_Xlen@?$basic_string@DU?$char_traits@D@std@@V?$allocator@D@2@@std@@QBEXXZ ENDP ; std::basic_string<char,std::char_traits<char>,std::allocator<char> >::_Xlen
; Function compile flags: /Ogtp
_TEXT	ENDS
;	COMDAT ?max_size@?$basic_string@DU?$char_traits@D@std@@V?$allocator@D@2@@std@@QBEIXZ
_TEXT	SEGMENT
?max_size@?$basic_string@DU?$char_traits@D@std@@V?$allocator@D@2@@std@@QBEIXZ PROC ; std::basic_string<char,std::char_traits<char>,std::allocator<char> >::max_size, COMDAT
; _this$ = ecx

; 1516 : 		size_type _Num = this->_Alval.max_size();
; 1517 : 		return (_Num <= 1 ? 1 : _Num - 1);

	mov	eax, -2					; fffffffeH

; 1518 : 		}

	ret	0
?max_size@?$basic_string@DU?$char_traits@D@std@@V?$allocator@D@2@@std@@QBEIXZ ENDP ; std::basic_string<char,std::char_traits<char>,std::allocator<char> >::max_size
; Function compile flags: /Ogtp
; File c:\program files\microsoft visual studio 10.0\vc\include\deque
_TEXT	ENDS
;	COMDAT ??8?$_Deque_const_iterator@VErrorInfo@Reader@Json@@V?$allocator@VErrorInfo@Reader@Json@@@std@@@std@@QBE_NABV01@@Z
_TEXT	SEGMENT
??8?$_Deque_const_iterator@VErrorInfo@Reader@Json@@V?$allocator@VErrorInfo@Reader@Json@@@std@@@std@@QBE_NABV01@@Z PROC ; std::_Deque_const_iterator<Json::Reader::ErrorInfo,std::allocator<Json::Reader::ErrorInfo> >::operator==, COMDAT
; _this$ = eax
; __Right$ = edx

; 475  : 		_Compat(_Right);
; 476  : 		return (this->_Myoff == _Right._Myoff);

	mov	ecx, DWORD PTR [eax+8]
	xor	eax, eax
	cmp	ecx, DWORD PTR [edx+8]
	sete	al

; 477  : 		}

	ret	0
??8?$_Deque_const_iterator@VErrorInfo@Reader@Json@@V?$allocator@VErrorInfo@Reader@Json@@@std@@@std@@QBE_NABV01@@Z ENDP ; std::_Deque_const_iterator<Json::Reader::ErrorInfo,std::allocator<Json::Reader::ErrorInfo> >::operator==
; Function compile flags: /Ogtp
; File c:\program files\microsoft visual studio 10.0\vc\include\xmemory
_TEXT	ENDS
;	COMDAT ??0?$allocator@VErrorInfo@Reader@Json@@@std@@QAE@XZ
_TEXT	SEGMENT
??0?$allocator@VErrorInfo@Reader@Json@@@std@@QAE@XZ PROC ; std::allocator<Json::Reader::ErrorInfo>::allocator<Json::Reader::ErrorInfo>, COMDAT
; _this$ = eax

; 162  : 		{	// construct default allocator (do nothing)
; 163  : 		}

	ret	0
??0?$allocator@VErrorInfo@Reader@Json@@@std@@QAE@XZ ENDP ; std::allocator<Json::Reader::ErrorInfo>::allocator<Json::Reader::ErrorInfo>
; Function compile flags: /Ogtp
; File c:\program files\microsoft visual studio 10.0\vc\include\deque
_TEXT	ENDS
;	COMDAT ?empty@?$deque@PAVValue@Json@@V?$allocator@PAVValue@Json@@@std@@@std@@QBE_NXZ
_TEXT	SEGMENT
?empty@?$deque@PAVValue@Json@@V?$allocator@PAVValue@Json@@@std@@@std@@QBE_NXZ PROC ; std::deque<Json::Value *,std::allocator<Json::Value *> >::empty, COMDAT
; _this$ = ecx

; 1160 : 		return (this->_Mysize == 0);

	xor	eax, eax
	cmp	DWORD PTR [ecx+16], eax
	sete	al

; 1161 : 		}

	ret	0
?empty@?$deque@PAVValue@Json@@V?$allocator@PAVValue@Json@@@std@@@std@@QBE_NXZ ENDP ; std::deque<Json::Value *,std::allocator<Json::Value *> >::empty
; Function compile flags: /Ogtp
; File c:\program files\microsoft visual studio 10.0\vc\include\streambuf
_TEXT	ENDS
;	COMDAT ?_Gnavail@?$basic_streambuf@DU?$char_traits@D@std@@@std@@IBE_JXZ
_TEXT	SEGMENT
?_Gnavail@?$basic_streambuf@DU?$char_traits@D@std@@@std@@IBE_JXZ PROC ; std::basic_streambuf<char,std::char_traits<char> >::_Gnavail, COMDAT
; _this$ = eax

; 279  : 		return (*_IGnext != 0 ? *_IGcount : 0);

	mov	ecx, DWORD PTR [eax+32]
	cmp	DWORD PTR [ecx], 0
	je	SHORT $LN3@Gnavail
	mov	edx, DWORD PTR [eax+48]
	mov	eax, DWORD PTR [edx]
	cdq

; 280  : 		}

	ret	0
$LN3@Gnavail:

; 279  : 		return (*_IGnext != 0 ? *_IGcount : 0);

	xor	eax, eax
	cdq

; 280  : 		}

	ret	0
?_Gnavail@?$basic_streambuf@DU?$char_traits@D@std@@@std@@IBE_JXZ ENDP ; std::basic_streambuf<char,std::char_traits<char> >::_Gnavail
; Function compile flags: /Ogtp
_TEXT	ENDS
;	COMDAT ?_Gninc@?$basic_streambuf@DU?$char_traits@D@std@@@std@@IAEPADXZ
_TEXT	SEGMENT
?_Gninc@?$basic_streambuf@DU?$char_traits@D@std@@@std@@IAEPADXZ PROC ; std::basic_streambuf<char,std::char_traits<char> >::_Gninc, COMDAT
; _this$ = ecx

; 267  : 		--*_IGcount;

	mov	eax, DWORD PTR [ecx+48]
	dec	DWORD PTR [eax]

; 268  : 		return ((*_IGnext)++);

	mov	ecx, DWORD PTR [ecx+32]
	mov	eax, DWORD PTR [ecx]
	lea	edx, DWORD PTR [eax+1]
	mov	DWORD PTR [ecx], edx

; 269  : 		}

	ret	0
?_Gninc@?$basic_streambuf@DU?$char_traits@D@std@@@std@@IAEPADXZ ENDP ; std::basic_streambuf<char,std::char_traits<char> >::_Gninc
; Function compile flags: /Ogtp
_TEXT	ENDS
;	COMDAT ?gptr@?$basic_streambuf@DU?$char_traits@D@std@@@std@@IBEPADXZ
_TEXT	SEGMENT
?gptr@?$basic_streambuf@DU?$char_traits@D@std@@@std@@IBEPADXZ PROC ; std::basic_streambuf<char,std::char_traits<char> >::gptr, COMDAT
; _this$ = eax

; 223  : 		return (*_IGnext);

	mov	ecx, DWORD PTR [eax+32]
	mov	eax, DWORD PTR [ecx]

; 224  : 		}

	ret	0
?gptr@?$basic_streambuf@DU?$char_traits@D@std@@@std@@IBEPADXZ ENDP ; std::basic_streambuf<char,std::char_traits<char> >::gptr
; Function compile flags: /Ogtp
_TEXT	ENDS
;	COMDAT ?pubsync@?$basic_streambuf@DU?$char_traits@D@std@@@std@@QAEHXZ
_TEXT	SEGMENT
?pubsync@?$basic_streambuf@DU?$char_traits@D@std@@@std@@QAEHXZ PROC ; std::basic_streambuf<char,std::char_traits<char> >::pubsync, COMDAT
; _this$ = ecx

; 141  : 		return (sync());

	mov	eax, DWORD PTR [ecx]
	mov	edx, DWORD PTR [eax+52]
	jmp	edx
?pubsync@?$basic_streambuf@DU?$char_traits@D@std@@@std@@QAEHXZ ENDP ; std::basic_streambuf<char,std::char_traits<char> >::pubsync
; Function compile flags: /Ogtp
; File c:\program files\microsoft visual studio 10.0\vc\include\xutility
_TEXT	ENDS
;	COMDAT ?_Tidy@?$_Yarn@D@std@@AAEXXZ
_TEXT	SEGMENT
?_Tidy@?$_Yarn@D@std@@AAEXXZ PROC			; std::_Yarn<char>::_Tidy, COMDAT
; _this$ = ecx

; 3391 : 		{	// discard any string

	push	esi
	mov	esi, ecx

; 3392 : 		if (_Myptr != 0)

	mov	eax, DWORD PTR [esi]
	test	eax, eax
	je	SHORT $LN4@Tidy

; 3393 : 
; 3394 :  #ifdef _DEBUG
; 3395 : 			_free_dbg(_Myptr, _CRT_BLOCK);
; 3396 : 
; 3397 :  #else /* _DEBUG */
; 3398 : 			_CSTD free(_Myptr);

	push	eax
	call	_free
	add	esp, 4
$LN4@Tidy:

; 3399 :  #endif /* _DEBUG */
; 3400 : 
; 3401 : 		_Myptr = 0;

	mov	DWORD PTR [esi], 0
	pop	esi

; 3402 : 		}

	ret	0
?_Tidy@?$_Yarn@D@std@@AAEXXZ ENDP			; std::_Yarn<char>::_Tidy
; Function compile flags: /Ogtp
; File c:\program files\microsoft visual studio 10.0\vc\include\xmemory
_TEXT	ENDS
;	COMDAT ??0?$allocator@D@std@@QAE@ABV01@@Z
_TEXT	SEGMENT
___formal$ = 8						; size = 4
??0?$allocator@D@std@@QAE@ABV01@@Z PROC			; std::allocator<char>::allocator<char>, COMDAT
; _this$ = ecx

; 165  : 	_ALLOCATOR(const _ALLOCATOR<_Ty>&) _THROW0()

	mov	eax, ecx

; 166  : 		{	// construct by copying (do nothing)
; 167  : 		}

	ret	4
??0?$allocator@D@std@@QAE@ABV01@@Z ENDP			; std::allocator<char>::allocator<char>
; Function compile flags: /Ogtp
_TEXT	ENDS
;	COMDAT ??0?$allocator@D@std@@QAE@XZ
_TEXT	SEGMENT
??0?$allocator@D@std@@QAE@XZ PROC			; std::allocator<char>::allocator<char>, COMDAT
; _this$ = ecx

; 161  : 	_ALLOCATOR() _THROW0()

	mov	eax, ecx

; 162  : 		{	// construct default allocator (do nothing)
; 163  : 		}

	ret	0
??0?$allocator@D@std@@QAE@XZ ENDP			; std::allocator<char>::allocator<char>
; Function compile flags: /Ogtp
; File c:\program files\microsoft visual studio 10.0\vc\include\xstring
_TEXT	ENDS
;	COMDAT ??1?$_String_val@DV?$allocator@D@std@@@std@@QAE@XZ
_TEXT	SEGMENT
??1?$_String_val@DV?$allocator@D@std@@@std@@QAE@XZ PROC	; std::_String_val<char,std::allocator<char> >::~_String_val<char,std::allocator<char> >, COMDAT
; _this$ = ecx

; 459  : 		}

	ret	0
??1?$_String_val@DV?$allocator@D@std@@@std@@QAE@XZ ENDP	; std::_String_val<char,std::allocator<char> >::~_String_val<char,std::allocator<char> >
; Function compile flags: /Ogtp
_TEXT	ENDS
;	COMDAT ??0?$_String_val@DV?$allocator@D@std@@@std@@QAE@V?$allocator@D@1@@Z
_TEXT	SEGMENT
__Al$ = 8						; size = 1
??0?$_String_val@DV?$allocator@D@std@@@std@@QAE@V?$allocator@D@1@@Z PROC ; std::_String_val<char,std::allocator<char> >::_String_val<char,std::allocator<char> >, COMDAT
; _this$ = ecx

; 454  : 		{	// construct allocator from _Al

	mov	eax, ecx

; 455  : 		}

	ret	4
??0?$_String_val@DV?$allocator@D@std@@@std@@QAE@V?$allocator@D@1@@Z ENDP ; std::_String_val<char,std::allocator<char> >::_String_val<char,std::allocator<char> >
; Function compile flags: /Ogtp
_TEXT	ENDS
;	COMDAT ?_Myptr@?$basic_string@DU?$char_traits@D@std@@V?$allocator@D@2@@std@@QBEPBDXZ
_TEXT	SEGMENT
?_Myptr@?$basic_string@DU?$char_traits@D@std@@V?$allocator@D@2@@std@@QBEPBDXZ PROC ; std::basic_string<char,std::char_traits<char>,std::allocator<char> >::_Myptr, COMDAT
; _this$ = ecx

; 2008 : 		{	// determine current pointer to buffer for nonmutable string

	mov	eax, ecx

; 2009 : 		return (this->_BUF_SIZE <= this->_Myres ? this->_Bx._Ptr
; 2010 : 			: this->_Bx._Buf);

	cmp	DWORD PTR [eax+20], 16			; 00000010H
	jb	SHORT $LN4@Myptr
	mov	eax, DWORD PTR [eax]
$LN4@Myptr:

; 2011 : 		}

	ret	0
?_Myptr@?$basic_string@DU?$char_traits@D@std@@V?$allocator@D@2@@std@@QBEPBDXZ ENDP ; std::basic_string<char,std::char_traits<char>,std::allocator<char> >::_Myptr
; Function compile flags: /Ogtp
_TEXT	ENDS
;	COMDAT ?_Myptr@?$basic_string@DU?$char_traits@D@std@@V?$allocator@D@2@@std@@QAEPADXZ
_TEXT	SEGMENT
?_Myptr@?$basic_string@DU?$char_traits@D@std@@V?$allocator@D@2@@std@@QAEPADXZ PROC ; std::basic_string<char,std::char_traits<char>,std::allocator<char> >::_Myptr, COMDAT
; _this$ = ecx

; 2002 : 		{	// determine current pointer to buffer for mutable string

	mov	eax, ecx

; 2003 : 		return (this->_BUF_SIZE <= this->_Myres ? this->_Bx._Ptr
; 2004 : 			: this->_Bx._Buf);

	cmp	DWORD PTR [eax+20], 16			; 00000010H
	jb	SHORT $LN4@Myptr@2
	mov	eax, DWORD PTR [eax]
$LN4@Myptr@2:

; 2005 : 		}

	ret	0
?_Myptr@?$basic_string@DU?$char_traits@D@std@@V?$allocator@D@2@@std@@QAEPADXZ ENDP ; std::basic_string<char,std::char_traits<char>,std::allocator<char> >::_Myptr
; Function compile flags: /Ogtp
; File c:\program files\microsoft visual studio 10.0\vc\include\deque
_TEXT	ENDS
;	COMDAT ??9?$_Deque_const_iterator@VErrorInfo@Reader@Json@@V?$allocator@VErrorInfo@Reader@Json@@@std@@@std@@QBE_NABV01@@Z
_TEXT	SEGMENT
??9?$_Deque_const_iterator@VErrorInfo@Reader@Json@@V?$allocator@VErrorInfo@Reader@Json@@@std@@@std@@QBE_NABV01@@Z PROC ; std::_Deque_const_iterator<Json::Reader::ErrorInfo,std::allocator<Json::Reader::ErrorInfo> >::operator!=, COMDAT
; _this$ = eax
; __Right$ = edx

; 481  : 		return (!(*this == _Right));

	mov	ecx, DWORD PTR [eax+8]
	xor	eax, eax
	cmp	ecx, DWORD PTR [edx+8]
	setne	al

; 482  : 		}

	ret	0
??9?$_Deque_const_iterator@VErrorInfo@Reader@Json@@V?$allocator@VErrorInfo@Reader@Json@@@std@@@std@@QBE_NABV01@@Z ENDP ; std::_Deque_const_iterator<Json::Reader::ErrorInfo,std::allocator<Json::Reader::ErrorInfo> >::operator!=
; Function compile flags: /Ogtp
_TEXT	ENDS
;	COMDAT ??E?$_Deque_const_iterator@VErrorInfo@Reader@Json@@V?$allocator@VErrorInfo@Reader@Json@@@std@@@std@@QAEAAV01@XZ
_TEXT	SEGMENT
??E?$_Deque_const_iterator@VErrorInfo@Reader@Json@@V?$allocator@VErrorInfo@Reader@Json@@@std@@@std@@QAEAAV01@XZ PROC ; std::_Deque_const_iterator<Json::Reader::ErrorInfo,std::allocator<Json::Reader::ErrorInfo> >::operator++, COMDAT
; _this$ = eax

; 365  :  #if _ITERATOR_DEBUG_LEVEL == 2
; 366  : 		_Mydeque *_Mycont = ((_Mydeque *)this->_Getcont());
; 367  : 		if (_Mycont == 0
; 368  : 			|| _Mycont->_Myoff + _Mycont->_Mysize <= this->_Myoff)
; 369  : 		{	// report error
; 370  : 		_DEBUG_ERROR("deque iterator not incrementable");
; 371  : 		_SCL_SECURE_OUT_OF_RANGE;
; 372  : 		}
; 373  : 
; 374  :  #elif _ITERATOR_DEBUG_LEVEL == 1
; 375  : 		_Mydeque *_Mycont = ((_Mydeque *)this->_Getcont());
; 376  : 		_SCL_SECURE_VALIDATE(_Mycont != 0);
; 377  : 		_SCL_SECURE_VALIDATE_RANGE(
; 378  : 			this->_Myoff < _Mycont->_Myoff + _Mycont->_Mysize);
; 379  :  #endif /* _ITERATOR_DEBUG_LEVEL */
; 380  : 
; 381  : 		++_Myoff;

	inc	DWORD PTR [eax+8]

; 382  : 		return (*this);
; 383  : 		}

	ret	0
??E?$_Deque_const_iterator@VErrorInfo@Reader@Json@@V?$allocator@VErrorInfo@Reader@Json@@@std@@@std@@QAEAAV01@XZ ENDP ; std::_Deque_const_iterator<Json::Reader::ErrorInfo,std::allocator<Json::Reader::ErrorInfo> >::operator++
; Function compile flags: /Ogtp
_TEXT	ENDS
;	COMDAT ?size@?$deque@VErrorInfo@Reader@Json@@V?$allocator@VErrorInfo@Reader@Json@@@std@@@std@@QBEIXZ
_TEXT	SEGMENT
?size@?$deque@VErrorInfo@Reader@Json@@V?$allocator@VErrorInfo@Reader@Json@@@std@@@std@@QBEIXZ PROC ; std::deque<Json::Reader::ErrorInfo,std::allocator<Json::Reader::ErrorInfo> >::size, COMDAT
; _this$ = eax

; 1150 : 		return (this->_Mysize);

	mov	eax, DWORD PTR [eax+16]

; 1151 : 		}

	ret	0
?size@?$deque@VErrorInfo@Reader@Json@@V?$allocator@VErrorInfo@Reader@Json@@@std@@@std@@QBEIXZ ENDP ; std::deque<Json::Reader::ErrorInfo,std::allocator<Json::Reader::ErrorInfo> >::size
; Function compile flags: /Ogtp
; File c:\program files\microsoft visual studio 10.0\vc\include\stack
_TEXT	ENDS
;	COMDAT ?empty@?$stack@PAVValue@Json@@V?$deque@PAVValue@Json@@V?$allocator@PAVValue@Json@@@std@@@std@@@std@@QBE_NXZ
_TEXT	SEGMENT
?empty@?$stack@PAVValue@Json@@V?$deque@PAVValue@Json@@V?$allocator@PAVValue@Json@@@std@@@std@@@std@@QBE_NXZ PROC ; std::stack<Json::Value *,std::deque<Json::Value *,std::allocator<Json::Value *> > >::empty, COMDAT
; _this$ = ecx

; 79   : 		return (c.empty());

	xor	eax, eax
	cmp	DWORD PTR [ecx+16], eax
	sete	al

; 80   : 		}

	ret	0
?empty@?$stack@PAVValue@Json@@V?$deque@PAVValue@Json@@V?$allocator@PAVValue@Json@@@std@@@std@@@std@@QBE_NXZ ENDP ; std::stack<Json::Value *,std::deque<Json::Value *,std::allocator<Json::Value *> > >::empty
; Function compile flags: /Ogtp
; File c:\program files\microsoft visual studio 10.0\vc\include\ios
_TEXT	ENDS
;	COMDAT ?rdbuf@?$basic_ios@DU?$char_traits@D@std@@@std@@QBEPAV?$basic_streambuf@DU?$char_traits@D@std@@@2@XZ
_TEXT	SEGMENT
?rdbuf@?$basic_ios@DU?$char_traits@D@std@@@std@@QBEPAV?$basic_streambuf@DU?$char_traits@D@std@@@2@XZ PROC ; std::basic_ios<char,std::char_traits<char> >::rdbuf, COMDAT
; _this$ = eax

; 86   : 		return (_Mystrbuf);

	mov	eax, DWORD PTR [eax+56]

; 87   : 		}

	ret	0
?rdbuf@?$basic_ios@DU?$char_traits@D@std@@@std@@QBEPAV?$basic_streambuf@DU?$char_traits@D@std@@@2@XZ ENDP ; std::basic_ios<char,std::char_traits<char> >::rdbuf
; Function compile flags: /Ogtp
; File c:\program files\microsoft visual studio 10.0\vc\include\xutility
_TEXT	ENDS
;	COMDAT ?c_str@?$_Yarn@D@std@@QBEPBDXZ
_TEXT	SEGMENT
?c_str@?$_Yarn@D@std@@QBEPBDXZ PROC			; std::_Yarn<char>::c_str, COMDAT
; _this$ = ecx

; 3376 : 		return (_Myptr != 0 ? _Myptr : &_Nul);

	mov	eax, DWORD PTR [ecx]
	test	eax, eax
	jne	SHORT $LN4@c_str
	lea	eax, DWORD PTR [ecx+4]
$LN4@c_str:

; 3377 : 		}

	ret	0
?c_str@?$_Yarn@D@std@@QBEPBDXZ ENDP			; std::_Yarn<char>::c_str
; Function compile flags: /Ogtp
_TEXT	ENDS
;	COMDAT ??1?$_Yarn@D@std@@QAE@XZ
_TEXT	SEGMENT
??1?$_Yarn@D@std@@QAE@XZ PROC				; std::_Yarn<char>::~_Yarn<char>, COMDAT
; _this$ = ecx

; 3365 : 		{	// destroy the object

	push	esi
	mov	esi, ecx

; 3366 : 		_Tidy();

	mov	eax, DWORD PTR [esi]
	test	eax, eax
	je	SHORT $LN6@Yarn
	push	eax
	call	_free
	add	esp, 4
$LN6@Yarn:
	mov	DWORD PTR [esi], 0
	pop	esi

; 3367 : 		}

	ret	0
??1?$_Yarn@D@std@@QAE@XZ ENDP				; std::_Yarn<char>::~_Yarn<char>
; Function compile flags: /Ogtp
_TEXT	ENDS
;	COMDAT ??0?$_Yarn@D@std@@QAE@XZ
_TEXT	SEGMENT
??0?$_Yarn@D@std@@QAE@XZ PROC				; std::_Yarn<char>::_Yarn<char>, COMDAT
; _this$ = eax

; 3315 : 		{	// default construct

	mov	DWORD PTR [eax], 0
	mov	BYTE PTR [eax+4], 0

; 3316 : 		}

	ret	0
??0?$_Yarn@D@std@@QAE@XZ ENDP				; std::_Yarn<char>::_Yarn<char>
; Function compile flags: /Ogtp
; File c:\program files\microsoft visual studio 10.0\vc\include\xstring
_TEXT	ENDS
;	COMDAT ?empty@?$basic_string@DU?$char_traits@D@std@@V?$allocator@D@2@@std@@QBE_NXZ
_TEXT	SEGMENT
?empty@?$basic_string@DU?$char_traits@D@std@@V?$allocator@D@2@@std@@QBE_NXZ PROC ; std::basic_string<char,std::char_traits<char>,std::allocator<char> >::empty, COMDAT
; _this$ = ecx

; 1550 : 		return (this->_Mysize == 0);

	xor	eax, eax
	cmp	DWORD PTR [ecx+16], eax
	sete	al

; 1551 : 		}

	ret	0
?empty@?$basic_string@DU?$char_traits@D@std@@V?$allocator@D@2@@std@@QBE_NXZ ENDP ; std::basic_string<char,std::char_traits<char>,std::allocator<char> >::empty
; Function compile flags: /Ogtp
_TEXT	ENDS
;	COMDAT ?size@?$basic_string@DU?$char_traits@D@std@@V?$allocator@D@2@@std@@QBEIXZ
_TEXT	SEGMENT
?size@?$basic_string@DU?$char_traits@D@std@@V?$allocator@D@2@@std@@QBEIXZ PROC ; std::basic_string<char,std::char_traits<char>,std::allocator<char> >::size, COMDAT
; _this$ = ecx

; 1511 : 		return (this->_Mysize);

	mov	eax, DWORD PTR [ecx+16]

; 1512 : 		}

	ret	0
?size@?$basic_string@DU?$char_traits@D@std@@V?$allocator@D@2@@std@@QBEIXZ ENDP ; std::basic_string<char,std::char_traits<char>,std::allocator<char> >::size
; Function compile flags: /Ogtp
_TEXT	ENDS
;	COMDAT ?length@?$basic_string@DU?$char_traits@D@std@@V?$allocator@D@2@@std@@QBEIXZ
_TEXT	SEGMENT
?length@?$basic_string@DU?$char_traits@D@std@@V?$allocator@D@2@@std@@QBEIXZ PROC ; std::basic_string<char,std::char_traits<char>,std::allocator<char> >::length, COMDAT
; _this$ = ecx

; 1506 : 		return (this->_Mysize);

	mov	eax, DWORD PTR [ecx+16]

; 1507 : 		}

	ret	0
?length@?$basic_string@DU?$char_traits@D@std@@V?$allocator@D@2@@std@@QBEIXZ ENDP ; std::basic_string<char,std::char_traits<char>,std::allocator<char> >::length
; Function compile flags: /Ogtp
_TEXT	ENDS
;	COMDAT ?c_str@?$basic_string@DU?$char_traits@D@std@@V?$allocator@D@2@@std@@QBEPBDXZ
_TEXT	SEGMENT
?c_str@?$basic_string@DU?$char_traits@D@std@@V?$allocator@D@2@@std@@QBEPBDXZ PROC ; std::basic_string<char,std::char_traits<char>,std::allocator<char> >::c_str, COMDAT
; _this$ = ecx

; 1495 : 		{	// return pointer to null-terminated nonmutable array

	mov	eax, ecx

; 1496 : 		return (_Myptr());

	cmp	DWORD PTR [eax+20], 16			; 00000010H
	jb	SHORT $LN6@c_str@2
	mov	eax, DWORD PTR [eax]
$LN6@c_str@2:

; 1497 : 		}

	ret	0
?c_str@?$basic_string@DU?$char_traits@D@std@@V?$allocator@D@2@@std@@QBEPBDXZ ENDP ; std::basic_string<char,std::char_traits<char>,std::allocator<char> >::c_str
; Function compile flags: /Ogtp
_TEXT	ENDS
;	COMDAT ??A?$basic_string@DU?$char_traits@D@std@@V?$allocator@D@2@@std@@QAEAADI@Z
_TEXT	SEGMENT
??A?$basic_string@DU?$char_traits@D@std@@V?$allocator@D@2@@std@@QAEAADI@Z PROC ; std::basic_string<char,std::char_traits<char>,std::allocator<char> >::operator[], COMDAT
; _this$ = eax
; __Off$ = ecx

; 1436 :  #if _ITERATOR_DEBUG_LEVEL == 2
; 1437 : 
; 1438 : 		if (this->_Mysize <= _Off)
; 1439 : 
; 1440 : 			_DEBUG_ERROR("string subscript out of range");
; 1441 : 
; 1442 :  #elif _ITERATOR_DEBUG_LEVEL == 1
; 1443 : 		_SCL_SECURE_VALIDATE_RANGE(_Off < this->_Mysize);
; 1444 :  #endif /* _ITERATOR_DEBUG_LEVEL == 2 */
; 1445 : 
; 1446 : 		return (_Myptr()[_Off]);

	cmp	DWORD PTR [eax+20], 16			; 00000010H
	jb	SHORT $LN5@operator@5
	mov	eax, DWORD PTR [eax]
$LN5@operator@5:
	add	eax, ecx

; 1447 : 		}

	ret	0
??A?$basic_string@DU?$char_traits@D@std@@V?$allocator@D@2@@std@@QAEAADI@Z ENDP ; std::basic_string<char,std::char_traits<char>,std::allocator<char> >::operator[]
_TEXT	ENDS
PUBLIC	?getLocationLineAndColumn@Reader@Json@@ABEXPBDAAH1@Z ; Json::Reader::getLocationLineAndColumn
; Function compile flags: /Ogtp
; File d:\project\vendor\wms\abs\src\jsoncpp-src-0.5.0.tar\jsoncpp-src-0.5.0\src\lib_json\json_reader.cpp
;	COMDAT ?getLocationLineAndColumn@Reader@Json@@ABEXPBDAAH1@Z
_TEXT	SEGMENT
_column$ = 8						; size = 4
?getLocationLineAndColumn@Reader@Json@@ABEXPBDAAH1@Z PROC ; Json::Reader::getLocationLineAndColumn, COMDAT
; _this$ = edx
; _location$ = eax
; _line$ = ecx

; 820  : {

	push	ebp
	mov	ebp, esp
	push	esi
	push	edi
	mov	edi, eax

; 821  :    Location current = begin_;

	mov	eax, DWORD PTR [edx+76]

; 822  :    Location lastLineStart = current;

	mov	esi, eax

; 823  :    line = 0;

	mov	DWORD PTR [ecx], 0

; 824  :    while ( current < location  &&  current != end_ )

	cmp	eax, edi
	jae	SHORT $LN5@getLocatio
	push	ebx
	mov	ebx, DWORD PTR [edx+80]
	npad	6
$LL6@getLocatio:
	cmp	eax, ebx
	je	SHORT $LN11@getLocatio

; 825  :    {
; 826  :       Char c = *current++;

	mov	dl, BYTE PTR [eax]
	inc	eax

; 827  :       if ( c == '\r' )

	cmp	dl, 13					; 0000000dH
	jne	SHORT $LN4@getLocatio

; 828  :       {
; 829  :          if ( *current == '\n' )

	cmp	BYTE PTR [eax], 10			; 0000000aH
	jne	SHORT $LN10@getLocatio

; 830  :             ++current;

	inc	eax

; 831  :          lastLineStart = current;
; 832  :          ++line;

	jmp	SHORT $LN10@getLocatio
$LN4@getLocatio:

; 833  :       }
; 834  :       else if ( c == '\n' )

	cmp	dl, 10					; 0000000aH
	jne	SHORT $LN1@getLocatio
$LN10@getLocatio:

; 835  :       {
; 836  :          lastLineStart = current;
; 837  :          ++line;

	inc	DWORD PTR [ecx]
	mov	esi, eax
$LN1@getLocatio:

; 824  :    while ( current < location  &&  current != end_ )

	cmp	eax, edi
	jb	SHORT $LL6@getLocatio
$LN11@getLocatio:
	pop	ebx
$LN5@getLocatio:

; 838  :       }
; 839  :    }
; 840  :    // column & line start at 1
; 841  :    column = int(location - lastLineStart) + 1;

	mov	eax, DWORD PTR _column$[ebp]
	sub	edi, esi
	inc	edi

; 842  :    ++line;

	inc	DWORD PTR [ecx]
	mov	DWORD PTR [eax], edi
	pop	edi
	pop	esi

; 843  : }

	pop	ebp
	ret	4
?getLocationLineAndColumn@Reader@Json@@ABEXPBDAAH1@Z ENDP ; Json::Reader::getLocationLineAndColumn
_TEXT	ENDS
PUBLIC	?getNextChar@Reader@Json@@AAEDXZ		; Json::Reader::getNextChar
; Function compile flags: /Ogtp
;	COMDAT ?getNextChar@Reader@Json@@AAEDXZ
_TEXT	SEGMENT
?getNextChar@Reader@Json@@AAEDXZ PROC			; Json::Reader::getNextChar, COMDAT
; _this$ = edx

; 810  :    if ( current_ == end_ )

	mov	ecx, DWORD PTR [edx+84]
	cmp	ecx, DWORD PTR [edx+80]
	jne	SHORT $LN1@getNextCha

; 811  :       return 0;

	xor	al, al

; 813  : }

	ret	0
$LN1@getNextCha:

; 812  :    return *current_++;

	mov	al, BYTE PTR [ecx]
	inc	ecx
	mov	DWORD PTR [edx+84], ecx

; 813  : }

	ret	0
?getNextChar@Reader@Json@@AAEDXZ ENDP			; Json::Reader::getNextChar
_TEXT	ENDS
PUBLIC	?readString@Reader@Json@@AAE_NXZ		; Json::Reader::readString
; Function compile flags: /Ogtp
;	COMDAT ?readString@Reader@Json@@AAE_NXZ
_TEXT	SEGMENT
?readString@Reader@Json@@AAE_NXZ PROC			; Json::Reader::readString, COMDAT
; _this$ = edx

; 465  : {

	push	esi

; 466  :    Char c = 0;
; 467  :    while ( current_ != end_ )

	mov	esi, DWORD PTR [edx+80]
	xor	cl, cl
	cmp	DWORD PTR [edx+84], esi
	je	SHORT $LN15@readString
	npad	5
$LL5@readString:

; 468  :    {
; 469  :       c = getNextChar();

	mov	eax, DWORD PTR [edx+84]
	cmp	eax, esi
	jne	SHORT $LN8@readString
	xor	cl, cl
	jmp	SHORT $LN1@readString
$LN8@readString:
	mov	cl, BYTE PTR [eax]
	inc	eax
	mov	DWORD PTR [edx+84], eax

; 470  :       if ( c == '\\' )

	cmp	cl, 92					; 0000005cH
	jne	SHORT $LN3@readString

; 471  :          getNextChar();

	cmp	eax, esi
	je	SHORT $LN1@readString
	inc	eax
	mov	DWORD PTR [edx+84], eax
	jmp	SHORT $LN1@readString
$LN3@readString:

; 472  :       else if ( c == '"' )

	cmp	cl, 34					; 00000022H
	je	SHORT $LN15@readString
$LN1@readString:

; 466  :    Char c = 0;
; 467  :    while ( current_ != end_ )

	cmp	DWORD PTR [edx+84], esi
	jne	SHORT $LL5@readString
$LN15@readString:

; 473  :          break;
; 474  :    }
; 475  :    return c == '"';

	xor	eax, eax
	cmp	cl, 34					; 00000022H
	sete	al
	pop	esi

; 476  : }

	ret	0
?readString@Reader@Json@@AAE_NXZ ENDP			; Json::Reader::readString
_TEXT	ENDS
PUBLIC	?readCppStyleComment@Reader@Json@@AAE_NXZ	; Json::Reader::readCppStyleComment
; Function compile flags: /Ogtp
;	COMDAT ?readCppStyleComment@Reader@Json@@AAE_NXZ
_TEXT	SEGMENT
?readCppStyleComment@Reader@Json@@AAE_NXZ PROC		; Json::Reader::readCppStyleComment, COMDAT
; _this$ = edx

; 440  : {

	push	esi

; 441  :    while ( current_ != end_ )

	mov	esi, DWORD PTR [edx+80]
	cmp	DWORD PTR [edx+84], esi
	je	SHORT $LN16@readCppSty
	npad	7
$LL4@readCppSty:

; 442  :    {
; 443  :       Char c = getNextChar();

	mov	eax, DWORD PTR [edx+84]
	cmp	eax, esi
	je	SHORT $LN13@readCppSty
	mov	cl, BYTE PTR [eax]
	inc	eax
	mov	DWORD PTR [edx+84], eax

; 444  :       if (  c == '\r'  ||  c == '\n' )

	cmp	cl, 13					; 0000000dH
	je	SHORT $LN16@readCppSty
	cmp	cl, 10					; 0000000aH
	je	SHORT $LN16@readCppSty
$LN13@readCppSty:

; 441  :    while ( current_ != end_ )

	cmp	DWORD PTR [edx+84], esi
	jne	SHORT $LL4@readCppSty
$LN16@readCppSty:

; 445  :          break;
; 446  :    }
; 447  :    return true;

	mov	al, 1
	pop	esi

; 448  : }

	ret	0
?readCppStyleComment@Reader@Json@@AAE_NXZ ENDP		; Json::Reader::readCppStyleComment
_TEXT	ENDS
PUBLIC	?readCStyleComment@Reader@Json@@AAE_NXZ		; Json::Reader::readCStyleComment
; Function compile flags: /Ogtp
;	COMDAT ?readCStyleComment@Reader@Json@@AAE_NXZ
_TEXT	SEGMENT
?readCStyleComment@Reader@Json@@AAE_NXZ PROC		; Json::Reader::readCStyleComment, COMDAT
; _this$ = ecx

; 427  : {

	push	esi

; 428  :    while ( current_ != end_ )

	mov	esi, DWORD PTR [ecx+80]
	cmp	DWORD PTR [ecx+84], esi
	je	SHORT $LN13@readCStyle
	npad	7
$LL3@readCStyle:

; 429  :    {
; 430  :       Char c = getNextChar();

	mov	eax, DWORD PTR [ecx+84]
	cmp	eax, esi
	je	SHORT $LN1@readCStyle
	mov	dl, BYTE PTR [eax]
	inc	eax
	mov	DWORD PTR [ecx+84], eax

; 431  :       if ( c == '*'  &&  *current_ == '/' )

	cmp	dl, 42					; 0000002aH
	jne	SHORT $LN1@readCStyle
	cmp	BYTE PTR [eax], 47			; 0000002fH
	je	SHORT $LN13@readCStyle
$LN1@readCStyle:

; 428  :    while ( current_ != end_ )

	cmp	DWORD PTR [ecx+84], esi
	jne	SHORT $LL3@readCStyle
$LN13@readCStyle:

; 432  :          break;
; 433  :    }
; 434  :    return getNextChar() == '/';

	mov	eax, DWORD PTR [ecx+84]
	cmp	eax, esi
	pop	esi
	jne	SHORT $LN9@readCStyle
	xor	dl, dl
	xor	eax, eax
	cmp	dl, 47					; 0000002fH
	sete	al

; 435  : }

	ret	0

; 432  :          break;
; 433  :    }
; 434  :    return getNextChar() == '/';

$LN9@readCStyle:
	mov	dl, BYTE PTR [eax]
	inc	eax
	mov	DWORD PTR [ecx+84], eax
	xor	eax, eax
	cmp	dl, 47					; 0000002fH
	sete	al

; 435  : }

	ret	0
?readCStyleComment@Reader@Json@@AAE_NXZ ENDP		; Json::Reader::readCStyleComment
_TEXT	ENDS
PUBLIC	?match@Reader@Json@@AAE_NPBDH@Z			; Json::Reader::match
; Function compile flags: /Ogtp
;	COMDAT ?match@Reader@Json@@AAE_NPBDH@Z
_TEXT	SEGMENT
?match@Reader@Json@@AAE_NPBDH@Z PROC			; Json::Reader::match, COMDAT
; _this$ = edx
; _pattern$ = edi
; _patternLength$ = esi

; 366  :    if ( end_ - current_ < patternLength )

	mov	ecx, DWORD PTR [edx+84]
	mov	eax, DWORD PTR [edx+80]
	sub	eax, ecx
	cmp	eax, esi
	jge	SHORT $LN4@match

; 367  :       return false;

	xor	al, al

; 374  : }

	ret	0
$LN4@match:
	push	ebx

; 368  :    int index = patternLength;

	mov	eax, esi

; 369  :    while ( index-- )

	test	esi, esi
	je	SHORT $LN9@match
$LL3@match:

; 370  :       if ( current_[index] != pattern[index] )

	mov	bl, BYTE PTR [ecx+eax-1]
	dec	eax
	cmp	bl, BYTE PTR [eax+edi]
	jne	SHORT $LN8@match

; 369  :    while ( index-- )

	test	eax, eax
	jne	SHORT $LL3@match
$LN9@match:

; 372  :    current_ += patternLength;

	add	ecx, esi
	mov	DWORD PTR [edx+84], ecx

; 373  :    return true;

	mov	al, 1
	pop	ebx

; 374  : }

	ret	0
$LN8@match:

; 371  :          return false;

	xor	al, al
	pop	ebx

; 374  : }

	ret	0
?match@Reader@Json@@AAE_NPBDH@Z ENDP			; Json::Reader::match
_TEXT	ENDS
PUBLIC	?skipSpaces@Reader@Json@@AAEXXZ			; Json::Reader::skipSpaces
; Function compile flags: /Ogtp
;	COMDAT ?skipSpaces@Reader@Json@@AAEXXZ
_TEXT	SEGMENT
?skipSpaces@Reader@Json@@AAEXXZ PROC			; Json::Reader::skipSpaces, COMDAT
; _this$ = edx

; 351  :    while ( current_ != end_ )

	mov	eax, DWORD PTR [edx+84]
	cmp	eax, DWORD PTR [edx+80]
	je	SHORT $LN3@skipSpaces
$LL5@skipSpaces:

; 352  :    {
; 353  :       Char c = *current_;

	mov	ecx, DWORD PTR [edx+84]
	mov	al, BYTE PTR [ecx]

; 354  :       if ( c == ' '  ||  c == '\t'  ||  c == '\r'  ||  c == '\n' )

	cmp	al, 32					; 00000020H
	je	SHORT $LN2@skipSpaces
	cmp	al, 9
	je	SHORT $LN2@skipSpaces
	cmp	al, 13					; 0000000dH
	je	SHORT $LN2@skipSpaces
	cmp	al, 10					; 0000000aH
	jne	SHORT $LN3@skipSpaces
$LN2@skipSpaces:

; 355  :          ++current_;

	inc	ecx
	mov	DWORD PTR [edx+84], ecx
	cmp	ecx, DWORD PTR [edx+80]
	jne	SHORT $LL5@skipSpaces
$LN3@skipSpaces:

; 356  :       else
; 357  :          break;
; 358  :    }
; 359  : }

	ret	0
?skipSpaces@Reader@Json@@AAEXXZ ENDP			; Json::Reader::skipSpaces
; Function compile flags: /Ogtp
_TEXT	ENDS
;	COMDAT ?containsNewLine@Json@@YA_NPBD0@Z
_TEXT	SEGMENT
?containsNewLine@Json@@YA_NPBD0@Z PROC			; Json::containsNewLine, COMDAT
; _begin$ = eax
; _end$ = edx

; 63   :    for ( ;begin < end; ++begin )

	cmp	eax, edx
	jae	SHORT $LN3@containsNe
$LL5@containsNe:

; 64   :       if ( *begin == '\n'  ||  *begin == '\r' )

	mov	cl, BYTE PTR [eax]
	cmp	cl, 10					; 0000000aH
	je	SHORT $LN9@containsNe
	cmp	cl, 13					; 0000000dH
	je	SHORT $LN9@containsNe

; 63   :    for ( ;begin < end; ++begin )

	inc	eax
	cmp	eax, edx
	jb	SHORT $LL5@containsNe
$LN3@containsNe:

; 66   :    return false;

	xor	al, al

; 67   : }

	ret	0
$LN9@containsNe:

; 65   :          return true;

	mov	al, 1

; 67   : }

	ret	0
?containsNewLine@Json@@YA_NPBD0@Z ENDP			; Json::containsNewLine
; Function compile flags: /Ogtp
_TEXT	ENDS
;	COMDAT ?in@Json@@YA_NDDDDDD@Z
_TEXT	SEGMENT
?in@Json@@YA_NDDDDDD@Z PROC				; Json::in, COMDAT
; _c$ = eax

; 55   :    return c == c1  ||  c == c2  ||  c == c3  ||  c == c4  ||  c == c5;

	cmp	al, 101					; 00000065H
	je	SHORT $LN5@in
	cmp	al, 69					; 00000045H
	je	SHORT $LN5@in
	cmp	al, 43					; 0000002bH
	je	SHORT $LN5@in
	cmp	al, 45					; 0000002dH
	je	SHORT $LN5@in
	xor	eax, eax

; 56   : }

	ret	0
$LN5@in:

; 55   :    return c == c1  ||  c == c2  ||  c == c3  ||  c == c4  ||  c == c5;

	mov	eax, 1

; 56   : }

	ret	0
?in@Json@@YA_NDDDDDD@Z ENDP				; Json::in
; Function compile flags: /Ogtp
_TEXT	ENDS
;	COMDAT ?in@Json@@YA_NDDDDD@Z
_TEXT	SEGMENT
?in@Json@@YA_NDDDDD@Z PROC				; Json::in, COMDAT
; _c$ = eax

; 49   :    return c == c1  ||  c == c2  ||  c == c3  ||  c == c4;

	cmp	al, 101					; 00000065H
	je	SHORT $LN5@in@2
	cmp	al, 69					; 00000045H
	je	SHORT $LN5@in@2
	cmp	al, 43					; 0000002bH
	je	SHORT $LN5@in@2
	xor	eax, eax

; 50   : }

	ret	0
$LN5@in@2:

; 49   :    return c == c1  ||  c == c2  ||  c == c3  ||  c == c4;

	mov	eax, 1

; 50   : }

	ret	0
?in@Json@@YA_NDDDDD@Z ENDP				; Json::in
_TEXT	ENDS
PUBLIC	??0Features@Json@@QAE@XZ			; Json::Features::Features
; Function compile flags: /Ogtp
;	COMDAT ??0Features@Json@@QAE@XZ
_TEXT	SEGMENT
??0Features@Json@@QAE@XZ PROC				; Json::Features::Features, COMDAT
; _this$ = ecx

; 22   : {

	mov	eax, ecx
	mov	WORD PTR [eax], 1

; 23   : }

	ret	0
??0Features@Json@@QAE@XZ ENDP				; Json::Features::Features
; Function compile flags: /Ogtp
; File c:\program files\microsoft visual studio 10.0\vc\include\xiosbase
_TEXT	ENDS
;	COMDAT ?flags@ios_base@std@@QBEHXZ
_TEXT	SEGMENT
?flags@ios_base@std@@QBEHXZ PROC			; std::ios_base::flags, COMDAT
; _this$ = eax

; 395  : 		return (_Fmtfl);

	mov	eax, DWORD PTR [eax+20]

; 396  : 		}

	ret	0
?flags@ios_base@std@@QBEHXZ ENDP			; std::ios_base::flags
; Function compile flags: /Ogtp
_TEXT	ENDS
;	COMDAT ?rdstate@ios_base@std@@QBEHXZ
_TEXT	SEGMENT
?rdstate@ios_base@std@@QBEHXZ PROC			; std::ios_base::rdstate, COMDAT
; _this$ = eax

; 336  : 		return (_Mystate);

	mov	eax, DWORD PTR [eax+12]

; 337  : 		}

	ret	0
?rdstate@ios_base@std@@QBEHXZ ENDP			; std::ios_base::rdstate
; Function compile flags: /Ogtp
; File c:\program files\microsoft visual studio 10.0\vc\include\system_error
_TEXT	ENDS
;	COMDAT ?_Makestr@system_error@std@@AAEXXZ
_TEXT	SEGMENT
?_Makestr@system_error@std@@AAEXXZ PROC			; std::system_error::_Makestr, COMDAT

; 563  : //		_Mymes = this->runtime_error::what();
; 564  : //		if (!_Mymes.empty())
; 565  : //			_Mymes.append(": ");
; 566  : //		_Mymes.append(_Mycode.message());
; 567  : 		}

	ret	0
?_Makestr@system_error@std@@AAEXXZ ENDP			; std::system_error::_Makestr
; Function compile flags: /Ogtp
_TEXT	ENDS
;	COMDAT ??0error_code@std@@QAE@HABVerror_category@1@@Z
_TEXT	SEGMENT
??0error_code@std@@QAE@HABVerror_category@1@@Z PROC	; std::error_code::error_code, COMDAT
; _this$ = eax
; __Cat$ = ecx

; 204  : 		{	// construct from error code and category

	mov	DWORD PTR [eax], 1
	mov	DWORD PTR [eax+4], ecx

; 205  : 		}

	ret	0
??0error_code@std@@QAE@HABVerror_category@1@@Z ENDP	; std::error_code::error_code
; Function compile flags: /Ogtp
; File c:\program files\microsoft visual studio 10.0\vc\include\xlocale
_TEXT	ENDS
;	COMDAT ?do_narrow@?$ctype@D@std@@MBEPBDPBD0DPAD@Z
_TEXT	SEGMENT
__First$ = 8						; size = 4
__Last$ = 12						; size = 4
___formal$ = 16						; size = 1
__Dest$ = 20						; size = 4
?do_narrow@?$ctype@D@std@@MBEPBDPBD0DPAD@Z PROC		; std::ctype<char>::do_narrow, COMDAT
; _this$ = ecx

; 2460 : 		{	// narrow elements in [_First, _Last) to chars

	push	ebp
	mov	ebp, esp

; 2461 : 		_DEBUG_RANGE(_First, _Last);
; 2462 : 		_DEBUG_POINTER(_Dest);
; 2463 : 		_CSTD memcpy(_Dest, _First, _Last - _First);

	mov	eax, DWORD PTR __First$[ebp]
	mov	edx, DWORD PTR __Dest$[ebp]
	push	esi
	mov	esi, DWORD PTR __Last$[ebp]
	mov	ecx, esi
	sub	ecx, eax
	push	ecx
	push	eax
	push	edx
	call	_memcpy
	add	esp, 12					; 0000000cH

; 2464 : 		return (_Last);

	mov	eax, esi
	pop	esi

; 2465 : 		}

	pop	ebp
	ret	16					; 00000010H
?do_narrow@?$ctype@D@std@@MBEPBDPBD0DPAD@Z ENDP		; std::ctype<char>::do_narrow
; Function compile flags: /Ogtp
_TEXT	ENDS
;	COMDAT ?do_narrow@?$ctype@D@std@@MBEDDD@Z
_TEXT	SEGMENT
__Ch$ = 8						; size = 1
___formal$ = 12						; size = 1
?do_narrow@?$ctype@D@std@@MBEDDD@Z PROC			; std::ctype<char>::do_narrow, COMDAT
; _this$ = ecx

; 2454 : 		{	// narrow char

	push	ebp
	mov	ebp, esp

; 2455 : 		return (_Ch);

	mov	al, BYTE PTR __Ch$[ebp]

; 2456 : 		}

	pop	ebp
	ret	8
?do_narrow@?$ctype@D@std@@MBEDDD@Z ENDP			; std::ctype<char>::do_narrow
; Function compile flags: /Ogtp
_TEXT	ENDS
;	COMDAT ?do_widen@?$ctype@D@std@@MBEPBDPBD0PAD@Z
_TEXT	SEGMENT
__First$ = 8						; size = 4
__Last$ = 12						; size = 4
__Dest$ = 16						; size = 4
?do_widen@?$ctype@D@std@@MBEPBDPBD0PAD@Z PROC		; std::ctype<char>::do_widen, COMDAT
; _this$ = ecx

; 2446 : 		{	// widen chars in [_First, _Last)

	push	ebp
	mov	ebp, esp

; 2447 : 		_DEBUG_RANGE(_First, _Last);
; 2448 : 		_DEBUG_POINTER(_Dest);
; 2449 : 		_CSTD memcpy(_Dest, _First, _Last - _First);

	mov	eax, DWORD PTR __First$[ebp]
	mov	edx, DWORD PTR __Dest$[ebp]
	push	esi
	mov	esi, DWORD PTR __Last$[ebp]
	mov	ecx, esi
	sub	ecx, eax
	push	ecx
	push	eax
	push	edx
	call	_memcpy
	add	esp, 12					; 0000000cH

; 2450 : 		return (_Last);

	mov	eax, esi
	pop	esi

; 2451 : 		}

	pop	ebp
	ret	12					; 0000000cH
?do_widen@?$ctype@D@std@@MBEPBDPBD0PAD@Z ENDP		; std::ctype<char>::do_widen
; Function compile flags: /Ogtp
_TEXT	ENDS
;	COMDAT ?do_widen@?$ctype@D@std@@MBEDD@Z
_TEXT	SEGMENT
__Byte$ = 8						; size = 1
?do_widen@?$ctype@D@std@@MBEDD@Z PROC			; std::ctype<char>::do_widen, COMDAT
; _this$ = ecx

; 2440 : 		{	// widen char

	push	ebp
	mov	ebp, esp

; 2441 : 		return (_Byte);

	mov	al, BYTE PTR __Byte$[ebp]

; 2442 : 		}

	pop	ebp
	ret	4
?do_widen@?$ctype@D@std@@MBEDD@Z ENDP			; std::ctype<char>::do_widen
; Function compile flags: /Ogtp
_TEXT	ENDS
;	COMDAT ?do_toupper@?$ctype@D@std@@MBEPBDPADPBD@Z
_TEXT	SEGMENT
__First$ = 8						; size = 4
__Last$ = 12						; size = 4
?do_toupper@?$ctype@D@std@@MBEPBDPADPBD@Z PROC		; std::ctype<char>::do_toupper, COMDAT
; _this$ = ecx

; 2432 : 		{	// convert [_First, _Last) in place to upper case

	push	ebp
	mov	ebp, esp
	push	ebx

; 2433 : 		_DEBUG_RANGE((const _Elem *)_First, _Last);
; 2434 : 		for (; _First != _Last; ++_First)

	mov	ebx, DWORD PTR __Last$[ebp]
	push	esi
	mov	esi, DWORD PTR __First$[ebp]
	cmp	esi, ebx
	je	SHORT $LN8@do_toupper
	push	edi
	lea	edi, DWORD PTR [ecx+8]
$LL3@do_toupper:

; 2435 : 			*_First = (_Elem)_Toupper((unsigned char)*_First, &_Ctype);

	movzx	eax, BYTE PTR [esi]
	push	edi
	push	eax
	call	__Toupper
	mov	BYTE PTR [esi], al
	inc	esi
	add	esp, 8
	cmp	esi, ebx
	jne	SHORT $LL3@do_toupper
	pop	edi
$LN8@do_toupper:

; 2436 : 		return ((const _Elem *)_First);

	mov	eax, esi
	pop	esi
	pop	ebx

; 2437 : 		}

	pop	ebp
	ret	8
?do_toupper@?$ctype@D@std@@MBEPBDPADPBD@Z ENDP		; std::ctype<char>::do_toupper
; Function compile flags: /Ogtp
_TEXT	ENDS
;	COMDAT ?do_toupper@?$ctype@D@std@@MBEDD@Z
_TEXT	SEGMENT
__Ch$ = 8						; size = 1
?do_toupper@?$ctype@D@std@@MBEDD@Z PROC			; std::ctype<char>::do_toupper, COMDAT
; _this$ = ecx

; 2426 : 		{	// convert element to upper case

	push	ebp
	mov	ebp, esp

; 2427 : 		return ((_Elem)_Toupper((unsigned char)_Ch, &_Ctype));

	movzx	eax, BYTE PTR __Ch$[ebp]
	add	ecx, 8
	push	ecx
	push	eax
	call	__Toupper
	add	esp, 8

; 2428 : 		}

	pop	ebp
	ret	4
?do_toupper@?$ctype@D@std@@MBEDD@Z ENDP			; std::ctype<char>::do_toupper
; Function compile flags: /Ogtp
_TEXT	ENDS
;	COMDAT ?do_tolower@?$ctype@D@std@@MBEPBDPADPBD@Z
_TEXT	SEGMENT
__First$ = 8						; size = 4
__Last$ = 12						; size = 4
?do_tolower@?$ctype@D@std@@MBEPBDPADPBD@Z PROC		; std::ctype<char>::do_tolower, COMDAT
; _this$ = ecx

; 2418 : 		{	// convert [_First, _Last) in place to lower case

	push	ebp
	mov	ebp, esp
	push	ebx

; 2419 : 		_DEBUG_RANGE((const _Elem *)_First, _Last);
; 2420 : 		for (; _First != _Last; ++_First)

	mov	ebx, DWORD PTR __Last$[ebp]
	push	esi
	mov	esi, DWORD PTR __First$[ebp]
	cmp	esi, ebx
	je	SHORT $LN8@do_tolower
	push	edi
	lea	edi, DWORD PTR [ecx+8]
$LL3@do_tolower:

; 2421 : 			*_First = (_Elem)_Tolower((unsigned char)*_First, &_Ctype);

	movzx	eax, BYTE PTR [esi]
	push	edi
	push	eax
	call	__Tolower
	mov	BYTE PTR [esi], al
	inc	esi
	add	esp, 8
	cmp	esi, ebx
	jne	SHORT $LL3@do_tolower
	pop	edi
$LN8@do_tolower:

; 2422 : 		return ((const _Elem *)_First);

	mov	eax, esi
	pop	esi
	pop	ebx

; 2423 : 		}

	pop	ebp
	ret	8
?do_tolower@?$ctype@D@std@@MBEPBDPADPBD@Z ENDP		; std::ctype<char>::do_tolower
; Function compile flags: /Ogtp
_TEXT	ENDS
;	COMDAT ?do_tolower@?$ctype@D@std@@MBEDD@Z
_TEXT	SEGMENT
__Ch$ = 8						; size = 1
?do_tolower@?$ctype@D@std@@MBEDD@Z PROC			; std::ctype<char>::do_tolower, COMDAT
; _this$ = ecx

; 2412 : 		{	// convert element to lower case

	push	ebp
	mov	ebp, esp

; 2413 : 		return ((_Elem)_Tolower((unsigned char)_Ch, &_Ctype));

	movzx	eax, BYTE PTR __Ch$[ebp]
	add	ecx, 8
	push	ecx
	push	eax
	call	__Tolower
	add	esp, 8

; 2414 : 		}

	pop	ebp
	ret	4
?do_tolower@?$ctype@D@std@@MBEDD@Z ENDP			; std::ctype<char>::do_tolower
; Function compile flags: /Ogtp
_TEXT	ENDS
;	COMDAT ?_Tidy@?$ctype@D@std@@IAEXXZ
_TEXT	SEGMENT
?_Tidy@?$ctype@D@std@@IAEXXZ PROC			; std::ctype<char>::_Tidy, COMDAT
; _this$ = ecx

; 2405 : 		if (0 < _Ctype._Delfl)

	mov	eax, DWORD PTR [ecx+20]
	test	eax, eax
	jle	SHORT $LN6@Tidy@2

; 2406 : 			free((void *)_Ctype._Table);

	mov	eax, DWORD PTR [ecx+16]
	push	eax
	call	_free
	add	esp, 4

; 2409 : 		}

	ret	0
$LN6@Tidy@2:

; 2407 : 		else if (_Ctype._Delfl < 0)

	jns	SHORT $LN1@Tidy@2

; 2408 : 			delete[] (void *)_Ctype._Table;

	mov	ecx, DWORD PTR [ecx+16]
	push	ecx
	call	??_V@YAXPAX@Z				; operator delete[]
	pop	ecx
$LN1@Tidy@2:

; 2409 : 		}

	ret	0
?_Tidy@?$ctype@D@std@@IAEXXZ ENDP			; std::ctype<char>::_Tidy
; Function compile flags: /Ogtp
_TEXT	ENDS
;	COMDAT ?_Getfacet@locale@std@@QBEPBVfacet@12@I@Z
_TEXT	SEGMENT
?_Getfacet@locale@std@@QBEPBVfacet@12@I@Z PROC		; std::locale::_Getfacet, COMDAT
; _this$ = eax
; __Id$ = esi

; 437  : 		const facet *_Facptr = _Id < _Ptr->_Facetcount
; 438  : 			? _Ptr->_Facetvec[_Id] : 0;	// null if id off end

	mov	ecx, DWORD PTR [eax]
	cmp	esi, DWORD PTR [ecx+12]
	jae	SHORT $LN6@Getfacet
	mov	edx, DWORD PTR [ecx+8]
	mov	eax, DWORD PTR [edx+esi*4]

; 439  : 		if (_Facptr != 0 || !_Ptr->_Xparent)

	test	eax, eax
	jne	SHORT $LN1@Getfacet
$LN10@Getfacet:
	cmp	BYTE PTR [ecx+20], 0
	je	SHORT $LN1@Getfacet

; 440  : 			return (_Facptr);	// found facet or not transparent
; 441  : 		else
; 442  : 			{	// look in current locale
; 443  : 			locale::_Locimp *_Ptr = _Getgloballocale();

	call	?_Getgloballocale@locale@std@@CAPAV_Locimp@12@XZ ; std::locale::_Getgloballocale

; 444  : 			return (_Id < _Ptr->_Facetcount
; 445  : 				? _Ptr->_Facetvec[_Id]	// get from current locale
; 446  : 				: 0);	// no entry in current locale

	cmp	esi, DWORD PTR [eax+12]
	jae	SHORT $LN8@Getfacet
	mov	eax, DWORD PTR [eax+8]
	mov	eax, DWORD PTR [eax+esi*4]

; 447  : 			}
; 448  : 		}

	ret	0
$LN6@Getfacet:

; 437  : 		const facet *_Facptr = _Id < _Ptr->_Facetcount
; 438  : 			? _Ptr->_Facetvec[_Id] : 0;	// null if id off end

	xor	eax, eax

; 439  : 		if (_Facptr != 0 || !_Ptr->_Xparent)

	jmp	SHORT $LN10@Getfacet
$LN8@Getfacet:

; 444  : 			return (_Id < _Ptr->_Facetcount
; 445  : 				? _Ptr->_Facetvec[_Id]	// get from current locale
; 446  : 				: 0);	// no entry in current locale

	xor	eax, eax
$LN1@Getfacet:

; 447  : 			}
; 448  : 		}

	ret	0
?_Getfacet@locale@std@@QBEPBVfacet@12@I@Z ENDP		; std::locale::_Getfacet
; Function compile flags: /Ogtp
_TEXT	ENDS
;	COMDAT ?c_str@locale@std@@QBEPBDXZ
_TEXT	SEGMENT
?c_str@locale@std@@QBEPBDXZ PROC			; std::locale::c_str, COMDAT
; _this$ = eax

; 432  : 		return (_Ptr->_Name.c_str());

	mov	ecx, DWORD PTR [eax]
	mov	eax, DWORD PTR [ecx+24]
	test	eax, eax
	jne	SHORT $LN6@c_str@3
	lea	eax, DWORD PTR [ecx+28]
$LN6@c_str@3:

; 433  : 		}

	ret	0
?c_str@locale@std@@QBEPBDXZ ENDP			; std::locale::c_str
; Function compile flags: /Ogtp
_TEXT	ENDS
;	COMDAT ??0facet@locale@std@@IAE@I@Z
_TEXT	SEGMENT
__Initrefs$ = 8						; size = 4
??0facet@locale@std@@IAE@I@Z PROC			; std::locale::facet::facet, COMDAT
; _this$ = ecx

; 170  : 			{	// construct with initial reference count

	push	ebp
	mov	ebp, esp
	mov	eax, ecx
	mov	ecx, DWORD PTR __Initrefs$[ebp]
	mov	DWORD PTR [eax], OFFSET ??_7facet@locale@std@@6B@
	mov	DWORD PTR [eax+4], ecx

; 171  : 			}

	pop	ebp
	ret	4
??0facet@locale@std@@IAE@I@Z ENDP			; std::locale::facet::facet
; Function compile flags: /Ogtp
_TEXT	ENDS
;	COMDAT ??1facet@locale@std@@UAE@XZ
_TEXT	SEGMENT
??1facet@locale@std@@UAE@XZ PROC			; std::locale::facet::~facet, COMDAT
; _this$ = ecx

; 164  : 			{	// destroy the object

	mov	DWORD PTR [ecx], OFFSET ??_7facet@locale@std@@6B@

; 165  : 			}

	ret	0
??1facet@locale@std@@UAE@XZ ENDP			; std::locale::facet::~facet
; Function compile flags: /Ogtp
_TEXT	ENDS
;	COMDAT ?_Register@facet@locale@std@@QAEXXZ
_TEXT	SEGMENT
?_Register@facet@locale@std@@QAEXXZ PROC		; std::locale::facet::_Register, COMDAT
; _this$ = eax

; 129  :  #if defined(_M_CEE)
; 130  : 			_Facet_Register_m(this);
; 131  : 
; 132  :  #else /* defined(_M_CEE) */
; 133  : 			_Facet_Register(this);

	push	eax
	call	?_Facet_Register@facet@locale@std@@CAXPAV123@@Z ; std::locale::facet::_Facet_Register
	pop	ecx

; 134  :  #endif /* defined(_M_CEE) */
; 135  : 			}

	ret	0
?_Register@facet@locale@std@@QAEXXZ ENDP		; std::locale::facet::_Register
; Function compile flags: /Ogtp
_TEXT	ENDS
;	COMDAT ?_Decref@facet@locale@std@@QAEPAV123@XZ
_TEXT	SEGMENT
__Lock$12781 = -4					; size = 4
?_Decref@facet@locale@std@@QAEPAV123@XZ PROC		; std::locale::facet::_Decref, COMDAT
; _this$ = ecx

; 119  : 			{	// safely decrement the reference count, return this when dead

	push	ebp
	mov	ebp, esp
	push	ecx
	push	esi
	push	edi
	mov	edi, ecx

; 120  : 			_BEGIN_LOCK(_LOCK_LOCALE)

	push	0
	lea	ecx, DWORD PTR __Lock$12781[ebp]
	call	??0_Lockit@std@@QAE@H@Z			; std::_Lockit::_Lockit

; 121  : 				if (0 < _Refs && _Refs < (size_t)(-1))

	mov	eax, DWORD PTR [edi+4]
	test	eax, eax
	je	SHORT $LN1@Decref
	cmp	eax, -1
	jae	SHORT $LN1@Decref

; 122  : 					--_Refs;

	dec	eax
	mov	DWORD PTR [edi+4], eax
$LN1@Decref:

; 123  : 				return (_Refs == 0 ? this : 0);

	mov	esi, DWORD PTR [edi+4]
	neg	esi
	sbb	esi, esi
	not	esi
	lea	ecx, DWORD PTR __Lock$12781[ebp]
	and	esi, edi
	call	??1_Lockit@std@@QAE@XZ			; std::_Lockit::~_Lockit
	pop	edi
	mov	eax, esi
	pop	esi

; 124  : 			_END_LOCK()
; 125  : 			}

	mov	esp, ebp
	pop	ebp
	ret	0
?_Decref@facet@locale@std@@QAEPAV123@XZ ENDP		; std::locale::facet::_Decref
; Function compile flags: /Ogtp
_TEXT	ENDS
;	COMDAT ?_Incref@facet@locale@std@@QAEXXZ
_TEXT	SEGMENT
__Lock$12776 = -4					; size = 4
?_Incref@facet@locale@std@@QAEXXZ PROC			; std::locale::facet::_Incref, COMDAT
; _this$ = ecx

; 111  : 			{	// safely increment the reference count

	push	ebp
	mov	ebp, esp
	push	ecx
	push	esi
	mov	esi, ecx

; 112  : 			_BEGIN_LOCK(_LOCK_LOCALE)

	push	0
	lea	ecx, DWORD PTR __Lock$12776[ebp]
	call	??0_Lockit@std@@QAE@H@Z			; std::_Lockit::_Lockit

; 113  : 				if (_Refs < (size_t)(-1))

	mov	eax, DWORD PTR [esi+4]
	cmp	eax, -1
	jae	SHORT $LN1@Incref

; 114  : 					++_Refs;

	inc	eax
	mov	DWORD PTR [esi+4], eax
$LN1@Incref:

; 115  : 			_END_LOCK()

	lea	ecx, DWORD PTR __Lock$12776[ebp]
	call	??1_Lockit@std@@QAE@XZ			; std::_Lockit::~_Lockit
	pop	esi

; 116  : 			}

	mov	esp, ebp
	pop	ebp
	ret	0
?_Incref@facet@locale@std@@QAEXXZ ENDP			; std::locale::facet::_Incref
; Function compile flags: /Ogtp
_TEXT	ENDS
;	COMDAT ??Bid@locale@std@@QAEIXZ
_TEXT	SEGMENT
__Lock$12770 = -4					; size = 4
??Bid@locale@std@@QAEIXZ PROC				; std::locale::id::operator unsigned int, COMDAT
; _this$ = esi

; 75   : 			{	// get stamp, with lazy allocation

	push	ebp
	mov	ebp, esp
	push	ecx

; 76   : 			if (_Id == 0)

	cmp	DWORD PTR [esi], 0
	jne	SHORT $LN6@operator@6

; 77   : 				{	// still zero, allocate stamp
; 78   : 				_BEGIN_LOCK(_LOCK_LOCALE)

	push	0
	lea	ecx, DWORD PTR __Lock$12770[ebp]
	call	??0_Lockit@std@@QAE@H@Z			; std::_Lockit::_Lockit

; 79   : 					if (_Id == 0)

	cmp	DWORD PTR [esi], 0
	jne	SHORT $LN1@operator@6

; 80   : 						_Id = ++_Id_cnt;

	mov	eax, DWORD PTR ?_Id_cnt@id@locale@std@@0HA ; std::locale::id::_Id_cnt
	inc	eax
	mov	DWORD PTR ?_Id_cnt@id@locale@std@@0HA, eax ; std::locale::id::_Id_cnt
	mov	DWORD PTR [esi], eax
$LN1@operator@6:

; 81   : 				_END_LOCK()

	lea	ecx, DWORD PTR __Lock$12770[ebp]
	call	??1_Lockit@std@@QAE@XZ			; std::_Lockit::~_Lockit
$LN6@operator@6:

; 82   : 				}
; 83   : 			return (_Id);

	mov	eax, DWORD PTR [esi]

; 84   : 			}

	mov	esp, ebp
	pop	ebp
	ret	0
??Bid@locale@std@@QAEIXZ ENDP				; std::locale::id::operator unsigned int
; Function compile flags: /Ogtp
_TEXT	ENDS
;	COMDAT ??0runtime_error@std@@QAE@ABV01@@Z
_TEXT	SEGMENT
___that$ = 8						; size = 4
??0runtime_error@std@@QAE@ABV01@@Z PROC			; std::runtime_error::runtime_error, COMDAT
; _this$ = ecx
	push	ebp
	mov	ebp, esp
	mov	eax, DWORD PTR ___that$[ebp]
	push	esi
	push	eax
	mov	esi, ecx
	call	??0exception@std@@QAE@ABV01@@Z		; std::exception::exception
	mov	DWORD PTR [esi], OFFSET ??_7runtime_error@std@@6B@
	mov	eax, esi
	pop	esi
	pop	ebp
	ret	4
??0runtime_error@std@@QAE@ABV01@@Z ENDP			; std::runtime_error::runtime_error
; Function compile flags: /Ogtp
; File c:\program files\microsoft visual studio 10.0\vc\include\xlocinfo
_TEXT	ENDS
;	COMDAT ?_Getctype@_Locinfo@std@@QBE?AU_Ctypevec@@XZ
_TEXT	SEGMENT
$T46249 = -16						; size = 16
?_Getctype@_Locinfo@std@@QBE?AU_Ctypevec@@XZ PROC	; std::_Locinfo::_Getctype, COMDAT
; ___$ReturnUdt$ = esi

; 117  : 		{	// return ctype stuff

	push	ebp
	mov	ebp, esp

; 118  : 		return (::_Getctype());

	lea	eax, DWORD PTR $T46249[ebp]
	sub	esp, 16					; 00000010H
	push	eax
	call	__Getctype
	mov	ecx, DWORD PTR [eax]
	mov	edx, DWORD PTR [eax+4]
	mov	DWORD PTR [esi], ecx
	mov	ecx, DWORD PTR [eax+8]
	mov	DWORD PTR [esi+4], edx
	mov	edx, DWORD PTR [eax+12]
	mov	DWORD PTR [esi+8], ecx
	add	esp, 4
	mov	DWORD PTR [esi+12], edx
	mov	eax, esi

; 119  : 		}

	mov	esp, ebp
	pop	ebp
	ret	0
?_Getctype@_Locinfo@std@@QBE?AU_Ctypevec@@XZ ENDP	; std::_Locinfo::_Getctype
_TEXT	ENDS
EXTRN	___security_cookie:DWORD
EXTRN	___CxxFrameHandler3:PROC
;	COMDAT xdata$x
; File c:\program files\microsoft visual studio 10.0\vc\include\xutility
xdata$x	SEGMENT
__unwindtable$??1_Locinfo@std@@QAE@XZ DD 0ffffffffH
	DD	FLAT:__unwindfunclet$??1_Locinfo@std@@QAE@XZ$0
	DD	00H
	DD	FLAT:__unwindfunclet$??1_Locinfo@std@@QAE@XZ$1
	DD	01H
	DD	FLAT:__unwindfunclet$??1_Locinfo@std@@QAE@XZ$2
	DD	02H
	DD	FLAT:__unwindfunclet$??1_Locinfo@std@@QAE@XZ$3
	DD	03H
	DD	FLAT:__unwindfunclet$??1_Locinfo@std@@QAE@XZ$4
__ehfuncinfo$??1_Locinfo@std@@QAE@XZ DD 019930522H
	DD	05H
	DD	FLAT:__unwindtable$??1_Locinfo@std@@QAE@XZ
	DD	2 DUP(00H)
	DD	2 DUP(00H)
	DD	00H
	DD	01H
; Function compile flags: /Ogtp
; File c:\program files\microsoft visual studio 10.0\vc\include\xlocinfo
xdata$x	ENDS
;	COMDAT ??1_Locinfo@std@@QAE@XZ
_TEXT	SEGMENT
__$EHRec$ = -12						; size = 12
_this$ = 8						; size = 4
??1_Locinfo@std@@QAE@XZ PROC				; std::_Locinfo::~_Locinfo, COMDAT

; 93   :         {

	push	ebp
	mov	ebp, esp
	push	-1
	push	__ehhandler$??1_Locinfo@std@@QAE@XZ
	mov	eax, DWORD PTR fs:0
	push	eax
	push	esi
	push	edi
	mov	eax, DWORD PTR ___security_cookie
	xor	eax, ebp
	push	eax
	lea	eax, DWORD PTR __$EHRec$[ebp]
	mov	DWORD PTR fs:0, eax
	mov	esi, DWORD PTR _this$[ebp]

; 94   :         _Locinfo_dtor(this);

	push	esi
	mov	DWORD PTR __$EHRec$[ebp+8], 4
	call	?_Locinfo_dtor@_Locinfo@std@@SAXPAV12@@Z ; std::_Locinfo::_Locinfo_dtor

; 95   :         }

	mov	eax, DWORD PTR [esi+28]
	xor	edi, edi
	add	esp, 4
	cmp	eax, edi
	je	SHORT $LN10@Locinfo
	push	eax
	call	_free
	add	esp, 4
$LN10@Locinfo:
	mov	DWORD PTR [esi+28], edi
	mov	eax, DWORD PTR [esi+20]
	cmp	eax, edi
	je	SHORT $LN15@Locinfo
	push	eax
	call	_free
	add	esp, 4
$LN15@Locinfo:
	mov	DWORD PTR [esi+20], edi
	mov	eax, DWORD PTR [esi+12]
	cmp	eax, edi
	je	SHORT $LN20@Locinfo
	push	eax
	call	_free
	add	esp, 4
$LN20@Locinfo:
	mov	DWORD PTR [esi+12], edi
	mov	eax, DWORD PTR [esi+4]
	cmp	eax, edi
	je	SHORT $LN25@Locinfo
	push	eax
	call	_free
	add	esp, 4
$LN25@Locinfo:
	mov	ecx, esi
	mov	DWORD PTR [esi+4], edi
	mov	DWORD PTR __$EHRec$[ebp+8], -1
	call	??1_Lockit@std@@QAE@XZ			; std::_Lockit::~_Lockit
	mov	ecx, DWORD PTR __$EHRec$[ebp]
	mov	DWORD PTR fs:0, ecx
	pop	ecx
	pop	edi
	pop	esi
	mov	esp, ebp
	pop	ebp
	ret	4
_TEXT	ENDS
;	COMDAT text$x
text$x	SEGMENT
__unwindfunclet$??1_Locinfo@std@@QAE@XZ$0:
	mov	ecx, DWORD PTR _this$[ebp]
	jmp	??1_Lockit@std@@QAE@XZ			; std::_Lockit::~_Lockit
__unwindfunclet$??1_Locinfo@std@@QAE@XZ$1:
	mov	ecx, DWORD PTR _this$[ebp]
	add	ecx, 4
	jmp	??1?$_Yarn@D@std@@QAE@XZ		; std::_Yarn<char>::~_Yarn<char>
__unwindfunclet$??1_Locinfo@std@@QAE@XZ$2:
	mov	ecx, DWORD PTR _this$[ebp]
	add	ecx, 12					; 0000000cH
	jmp	??1?$_Yarn@D@std@@QAE@XZ		; std::_Yarn<char>::~_Yarn<char>
__unwindfunclet$??1_Locinfo@std@@QAE@XZ$3:
	mov	ecx, DWORD PTR _this$[ebp]
	add	ecx, 20					; 00000014H
	jmp	??1?$_Yarn@D@std@@QAE@XZ		; std::_Yarn<char>::~_Yarn<char>
__unwindfunclet$??1_Locinfo@std@@QAE@XZ$4:
	mov	ecx, DWORD PTR _this$[ebp]
	add	ecx, 28					; 0000001cH
	jmp	??1?$_Yarn@D@std@@QAE@XZ		; std::_Yarn<char>::~_Yarn<char>
__ehhandler$??1_Locinfo@std@@QAE@XZ:
	mov	edx, DWORD PTR [esp+8]
	lea	eax, DWORD PTR [edx+12]
	mov	ecx, DWORD PTR [edx-12]
	xor	ecx, eax
	call	@__security_check_cookie@4
	mov	eax, OFFSET __ehfuncinfo$??1_Locinfo@std@@QAE@XZ
	jmp	___CxxFrameHandler3
text$x	ENDS
??1_Locinfo@std@@QAE@XZ ENDP				; std::_Locinfo::~_Locinfo
; Function compile flags: /Ogtp
;	COMDAT ??1runtime_error@std@@UAE@XZ
_TEXT	SEGMENT
??1runtime_error@std@@UAE@XZ PROC			; std::runtime_error::~runtime_error, COMDAT
; _this$ = ecx
	jmp	??1exception@std@@UAE@XZ		; std::exception::~exception
??1runtime_error@std@@UAE@XZ ENDP			; std::runtime_error::~runtime_error
; Function compile flags: /Ogtp
_TEXT	ENDS
;	COMDAT ??_Gruntime_error@std@@UAEPAXI@Z
_TEXT	SEGMENT
___flags$ = 8						; size = 4
??_Gruntime_error@std@@UAEPAXI@Z PROC			; std::runtime_error::`scalar deleting destructor', COMDAT
; _this$ = ecx
	push	ebp
	mov	ebp, esp
	push	esi
	mov	esi, ecx
	call	??1exception@std@@UAE@XZ		; std::exception::~exception
	test	BYTE PTR ___flags$[ebp], 1
	je	SHORT $LN7@scalar
	push	esi
	call	??3@YAXPAX@Z				; operator delete
	add	esp, 4
$LN7@scalar:
	mov	eax, esi
	pop	esi
	pop	ebp
	ret	4
??_Gruntime_error@std@@UAEPAXI@Z ENDP			; std::runtime_error::`scalar deleting destructor'
; Function compile flags: /Ogtp
; File c:\program files\microsoft visual studio 10.0\vc\include\stdexcept
_TEXT	ENDS
;	COMDAT ??0runtime_error@std@@QAE@PBD@Z
_TEXT	SEGMENT
__Message$ = 8						; size = 4
??0runtime_error@std@@QAE@PBD@Z PROC			; std::runtime_error::runtime_error, COMDAT
; _this$ = ecx

; 170  : 		{	// construct from message string

	push	ebp
	mov	ebp, esp
	push	esi
	lea	eax, DWORD PTR __Message$[ebp]
	push	eax
	mov	esi, ecx
	call	??0exception@std@@QAE@ABQBD@Z		; std::exception::exception
	mov	DWORD PTR [esi], OFFSET ??_7runtime_error@std@@6B@

; 171  : 		}

	mov	eax, esi
	pop	esi
	pop	ebp
	ret	4
??0runtime_error@std@@QAE@PBD@Z ENDP			; std::runtime_error::runtime_error
; Function compile flags: /Ogtp
; File c:\program files\microsoft visual studio 10.0\vc\include\xutility
_TEXT	ENDS
;	COMDAT ?_Orphan_all@_Container_base12@std@@QAEXXZ
_TEXT	SEGMENT
?_Orphan_all@_Container_base12@std@@QAEXXZ PROC		; std::_Container_base12::_Orphan_all, COMDAT
; _this$ = ecx

; 195  :  #if _ITERATOR_DEBUG_LEVEL == 2
; 196  : 	if (_Myproxy != 0)
; 197  : 		{	// proxy allocated, drain it
; 198  : 		_Lockit _Lock(_LOCK_DEBUG);
; 199  : 
; 200  : 		for (_Iterator_base12 **_Pnext = &_Myproxy->_Myfirstiter;
; 201  : 			*_Pnext != 0; *_Pnext = (*_Pnext)->_Mynextiter)
; 202  : 			(*_Pnext)->_Myproxy = 0;
; 203  : 		_Myproxy->_Myfirstiter = 0;
; 204  : 		}
; 205  :  #endif /* _ITERATOR_DEBUG_LEVEL == 2 */
; 206  : 	}

	ret	0
?_Orphan_all@_Container_base12@std@@QAEXXZ ENDP		; std::_Container_base12::_Orphan_all
; Function compile flags: /Ogtp
_TEXT	ENDS
;	COMDAT ?_Getcont@_Iterator_base12@std@@QBEPBU_Container_base12@2@XZ
_TEXT	SEGMENT
?_Getcont@_Iterator_base12@std@@QBEPBU_Container_base12@2@XZ PROC ; std::_Iterator_base12::_Getcont, COMDAT
; _this$ = eax

; 163  : 		return (_Myproxy == 0 ? 0 : _Myproxy->_Mycont);

	mov	eax, DWORD PTR [eax]
	test	eax, eax
	jne	SHORT $LN3@Getcont

; 164  : 		}

	ret	0
$LN3@Getcont:

; 163  : 		return (_Myproxy == 0 ? 0 : _Myproxy->_Mycont);

	mov	eax, DWORD PTR [eax]

; 164  : 		}

	ret	0
?_Getcont@_Iterator_base12@std@@QBEPBU_Container_base12@2@XZ ENDP ; std::_Iterator_base12::_Getcont
; Function compile flags: /Ogtp
_TEXT	ENDS
;	COMDAT ?_Adopt@_Iterator_base12@std@@QAEXPBU_Container_base12@2@@Z
_TEXT	SEGMENT
?_Adopt@_Iterator_base12@std@@QAEXPBU_Container_base12@2@@Z PROC ; std::_Iterator_base12::_Adopt, COMDAT
; _this$ = ecx
; __Parent$ = eax

; 137  : 		if (_Parent != 0)

	test	eax, eax
	je	SHORT $LN1@Adopt

; 138  : 			{	// have a parent, do adoption
; 139  : 			_Container_proxy *_Parent_proxy = _Parent->_Myproxy;
; 140  : 
; 141  :  #if _ITERATOR_DEBUG_LEVEL == 2
; 142  : 			if (_Myproxy != _Parent_proxy)
; 143  : 				{	// change parentage
; 144  : 				_Lockit _Lock(_LOCK_DEBUG);
; 145  : 				_Orphan_me();
; 146  : 				_Mynextiter = _Parent_proxy->_Myfirstiter;
; 147  : 				_Parent_proxy->_Myfirstiter = this;
; 148  : 				_Myproxy = _Parent_proxy;
; 149  : 				}
; 150  :  #else /* _ITERATOR_DEBUG_LEVEL == 2 */
; 151  : 			_Myproxy = _Parent_proxy;

	mov	eax, DWORD PTR [eax]
	mov	DWORD PTR [ecx], eax
$LN1@Adopt:

; 152  :  #endif /* _ITERATOR_DEBUG_LEVEL == 2 */
; 153  : 			}
; 154  : 		}

	ret	0
?_Adopt@_Iterator_base12@std@@QAEXPBU_Container_base12@2@@Z ENDP ; std::_Iterator_base12::_Adopt
; Function compile flags: /Ogtp
_TEXT	ENDS
;	COMDAT ??1_Iterator_base12@std@@QAE@XZ
_TEXT	SEGMENT
??1_Iterator_base12@std@@QAE@XZ PROC			; std::_Iterator_base12::~_Iterator_base12, COMDAT

; 129  :  #if _ITERATOR_DEBUG_LEVEL == 2
; 130  : 		_Lockit _Lock(_LOCK_DEBUG);
; 131  : 		_Orphan_me();
; 132  :  #endif /* _ITERATOR_DEBUG_LEVEL == 2 */
; 133  : 		}

	ret	0
??1_Iterator_base12@std@@QAE@XZ ENDP			; std::_Iterator_base12::~_Iterator_base12
; Function compile flags: /Ogtp
_TEXT	ENDS
;	COMDAT ??4_Iterator_base12@std@@QAEAAU01@ABU01@@Z
_TEXT	SEGMENT
??4_Iterator_base12@std@@QAEAAU01@ABU01@@Z PROC		; std::_Iterator_base12::operator=, COMDAT
; _this$ = eax
; __Right$ = ecx

; 122  : 		if (_Myproxy != _Right._Myproxy)

	mov	ecx, DWORD PTR [ecx]
	cmp	DWORD PTR [eax], ecx
	je	SHORT $LN4@operator@7

; 123  : 			_Adopt(_Right._Myproxy->_Mycont);

	mov	ecx, DWORD PTR [ecx]
	test	ecx, ecx
	je	SHORT $LN4@operator@7
	mov	edx, DWORD PTR [ecx]
	mov	DWORD PTR [eax], edx
$LN4@operator@7:

; 124  : 		return (*this);
; 125  : 		}

	ret	0
??4_Iterator_base12@std@@QAEAAU01@ABU01@@Z ENDP		; std::_Iterator_base12::operator=
; Function compile flags: /Ogtp
_TEXT	ENDS
;	COMDAT ??0_Iterator_base12@std@@QAE@ABU01@@Z
_TEXT	SEGMENT
??0_Iterator_base12@std@@QAE@ABU01@@Z PROC		; std::_Iterator_base12::_Iterator_base12, COMDAT
; _this$ = eax
; __Right$ = ecx

; 116  : 		{	// copy an iterator

	mov	DWORD PTR [eax], 0
	mov	DWORD PTR [eax+4], 0

; 117  : 		*this = _Right;

	mov	ecx, DWORD PTR [ecx]
	test	ecx, ecx
	je	SHORT $LN6@Iterator_b
	mov	ecx, DWORD PTR [ecx]
	test	ecx, ecx
	je	SHORT $LN6@Iterator_b
	mov	edx, DWORD PTR [ecx]
	mov	DWORD PTR [eax], edx
$LN6@Iterator_b:

; 118  : 		}

	ret	0
??0_Iterator_base12@std@@QAE@ABU01@@Z ENDP		; std::_Iterator_base12::_Iterator_base12
; Function compile flags: /Ogtp
_TEXT	ENDS
;	COMDAT ??0_Iterator_base12@std@@QAE@XZ
_TEXT	SEGMENT
??0_Iterator_base12@std@@QAE@XZ PROC			; std::_Iterator_base12::_Iterator_base12, COMDAT
; _this$ = eax

; 111  : 		{	// construct orphaned iterator

	mov	DWORD PTR [eax], 0
	mov	DWORD PTR [eax+4], 0

; 112  : 		}

	ret	0
??0_Iterator_base12@std@@QAE@XZ ENDP			; std::_Iterator_base12::_Iterator_base12
; Function compile flags: /Ogtp
_TEXT	ENDS
;	COMDAT ??1_Container_base12@std@@QAE@XZ
_TEXT	SEGMENT
??1_Container_base12@std@@QAE@XZ PROC			; std::_Container_base12::~_Container_base12, COMDAT
; _this$ = ecx

; 92   : 		_Orphan_all();
; 93   : 		}

	ret	0
??1_Container_base12@std@@QAE@XZ ENDP			; std::_Container_base12::~_Container_base12
; Function compile flags: /Ogtp
_TEXT	ENDS
;	COMDAT ??0_Container_base12@std@@QAE@XZ
_TEXT	SEGMENT
??0_Container_base12@std@@QAE@XZ PROC			; std::_Container_base12::_Container_base12, COMDAT
; _this$ = eax

; 77   : 		{	// construct childless container

	mov	DWORD PTR [eax], 0

; 78   : 		}

	ret	0
??0_Container_base12@std@@QAE@XZ ENDP			; std::_Container_base12::_Container_base12
; Function compile flags: /Ogtp
_TEXT	ENDS
;	COMDAT ??0_Container_proxy@std@@QAE@XZ
_TEXT	SEGMENT
??0_Container_proxy@std@@QAE@XZ PROC			; std::_Container_proxy::_Container_proxy, COMDAT
; _this$ = eax

; 65   : 		{	// construct from pointers

	mov	DWORD PTR [eax], 0
	mov	DWORD PTR [eax+4], 0

; 66   : 		}

	ret	0
??0_Container_proxy@std@@QAE@XZ ENDP			; std::_Container_proxy::_Container_proxy
; Function compile flags: /Ogtp
; File c:\program files\microsoft visual studio 10.0\vc\include\iosfwd
_TEXT	ENDS
;	COMDAT ?eof@?$char_traits@D@std@@SAHXZ
_TEXT	SEGMENT
?eof@?$char_traits@D@std@@SAHXZ PROC			; std::char_traits<char>::eof, COMDAT

; 563  : 		return (EOF);

	or	eax, -1

; 564  : 		}

	ret	0
?eof@?$char_traits@D@std@@SAHXZ ENDP			; std::char_traits<char>::eof
; Function compile flags: /Ogtp
_TEXT	ENDS
;	COMDAT ?eq_int_type@?$char_traits@D@std@@SA_NABH0@Z
_TEXT	SEGMENT
?eq_int_type@?$char_traits@D@std@@SA_NABH0@Z PROC	; std::char_traits<char>::eq_int_type, COMDAT
; __Left$ = eax
; __Right$ = edx

; 553  : 		return (_Left == _Right);

	mov	ecx, DWORD PTR [eax]
	xor	eax, eax
	cmp	ecx, DWORD PTR [edx]
	sete	al

; 554  : 		}

	ret	0
?eq_int_type@?$char_traits@D@std@@SA_NABH0@Z ENDP	; std::char_traits<char>::eq_int_type
; Function compile flags: /Ogtp
_TEXT	ENDS
;	COMDAT ?to_int_type@?$char_traits@D@std@@SAHABD@Z
_TEXT	SEGMENT
?to_int_type@?$char_traits@D@std@@SAHABD@Z PROC		; std::char_traits<char>::to_int_type, COMDAT
; __Ch$ = eax

; 547  : 		return ((unsigned char)_Ch);

	movzx	eax, BYTE PTR [eax]

; 548  : 		}

	ret	0
?to_int_type@?$char_traits@D@std@@SAHABD@Z ENDP		; std::char_traits<char>::to_int_type
; Function compile flags: /Ogtp
_TEXT	ENDS
;	COMDAT ?to_char_type@?$char_traits@D@std@@SADABH@Z
_TEXT	SEGMENT
?to_char_type@?$char_traits@D@std@@SADABH@Z PROC	; std::char_traits<char>::to_char_type, COMDAT
; __Meta$ = eax

; 542  : 		return ((_Elem)_Meta);

	mov	al, BYTE PTR [eax]

; 543  : 		}

	ret	0
?to_char_type@?$char_traits@D@std@@SADABH@Z ENDP	; std::char_traits<char>::to_char_type
; Function compile flags: /Ogtp
_TEXT	ENDS
;	COMDAT ?assign@?$char_traits@D@std@@SAXAADABD@Z
_TEXT	SEGMENT
__Left$ = 8						; size = 4
__Right$ = 12						; size = 4
?assign@?$char_traits@D@std@@SAXAADABD@Z PROC		; std::char_traits<char>::assign, COMDAT

; 526  : 		{	// assign an element

	push	ebp
	mov	ebp, esp

; 527  : 		_Left = _Right;

	mov	eax, DWORD PTR __Right$[ebp]
	mov	cl, BYTE PTR [eax]
	mov	edx, DWORD PTR __Left$[ebp]
	mov	BYTE PTR [edx], cl

; 528  : 		}

	pop	ebp
	ret	0
?assign@?$char_traits@D@std@@SAXAADABD@Z ENDP		; std::char_traits<char>::assign
_TEXT	ENDS
EXTRN	_memset:PROC
; Function compile flags: /Ogtp
;	COMDAT ?assign@?$char_traits@D@std@@SAPADPADID@Z
_TEXT	SEGMENT
?assign@?$char_traits@D@std@@SAPADPADID@Z PROC		; std::char_traits<char>::assign, COMDAT
; __First$ = edx
; __Count$ = eax
; __Ch$ = ecx

; 522  : 		return ((_Elem *)_CSTD memset(_First, _Ch, _Count));

	movsx	ecx, cl
	push	eax
	push	ecx
	push	edx
	call	_memset
	add	esp, 12					; 0000000cH

; 523  : 		}

	ret	0
?assign@?$char_traits@D@std@@SAPADPADID@Z ENDP		; std::char_traits<char>::assign
; Function compile flags: /Ogtp
_TEXT	ENDS
;	COMDAT ?move@?$char_traits@D@std@@SAPADPADPBDI@Z
_TEXT	SEGMENT
__First1$ = 8						; size = 4
__First2$ = 12						; size = 4
__Count$ = 16						; size = 4
?move@?$char_traits@D@std@@SAPADPADPBDI@Z PROC		; std::char_traits<char>::move, COMDAT

; 516  : 		{	// copy [_First1, _First1 + _Count) to [_First2, ...)

	push	ebp
	mov	ebp, esp

; 518  : 		}

	pop	ebp

; 517  : 		return ((_Elem *)_CSTD memmove(_First1, _First2, _Count));

	jmp	_memmove
?move@?$char_traits@D@std@@SAPADPADPBDI@Z ENDP		; std::char_traits<char>::move
; Function compile flags: /Ogtp
_TEXT	ENDS
;	COMDAT ?copy@?$char_traits@D@std@@SAPADPADPBDI@Z
_TEXT	SEGMENT
__First1$ = 8						; size = 4
__First2$ = 12						; size = 4
__Count$ = 16						; size = 4
?copy@?$char_traits@D@std@@SAPADPADPBDI@Z PROC		; std::char_traits<char>::copy, COMDAT

; 496  : 		{	// copy [_First1, _First1 + _Count) to [_First2, ...)

	push	ebp
	mov	ebp, esp

; 498  : 		}

	pop	ebp

; 497  : 		return ((_Elem *)_CSTD memcpy(_First1, _First2, _Count));

	jmp	_memcpy
?copy@?$char_traits@D@std@@SAPADPADPBDI@Z ENDP		; std::char_traits<char>::copy
; Function compile flags: /Ogtp
_TEXT	ENDS
;	COMDAT ?length@?$char_traits@D@std@@SAIPBD@Z
_TEXT	SEGMENT
__First$ = 8						; size = 4
?length@?$char_traits@D@std@@SAIPBD@Z PROC		; std::char_traits<char>::length, COMDAT

; 490  : 		{	// find length of null-terminated string

	push	ebp
	mov	ebp, esp

; 491  : 		return (_CSTD strlen(_First));

	mov	eax, DWORD PTR __First$[ebp]
	lea	edx, DWORD PTR [eax+1]
	npad	7
$LL3@length:
	mov	cl, BYTE PTR [eax]
	inc	eax
	test	cl, cl
	jne	SHORT $LL3@length
	sub	eax, edx

; 492  : 		}

	pop	ebp
	ret	0
?length@?$char_traits@D@std@@SAIPBD@Z ENDP		; std::char_traits<char>::length
; Function compile flags: /Ogtp
; File c:\program files\microsoft visual studio 10.0\vc\include\new
_TEXT	ENDS
;	COMDAT ??3@YAXPAX0@Z
_TEXT	SEGMENT
___formal$ = 8						; size = 4
___formal$ = 12						; size = 4
??3@YAXPAX0@Z PROC					; operator delete, COMDAT

; 62   : 	}

	ret	0
??3@YAXPAX0@Z ENDP					; operator delete
; Function compile flags: /Ogtp
_TEXT	ENDS
;	COMDAT ??2@YAPAXIPAX@Z
_TEXT	SEGMENT
___formal$ = 8						; size = 4
__Where$ = 12						; size = 4
??2@YAPAXIPAX@Z PROC					; operator new, COMDAT

; 56   : 	{	// construct array with placement at _Where

	push	ebp
	mov	ebp, esp

; 57   : 	return (_Where);

	mov	eax, DWORD PTR __Where$[ebp]

; 58   : 	}

	pop	ebp
	ret	0
??2@YAPAXIPAX@Z ENDP					; operator new
; Function compile flags: /Ogtp
; File c:\program files\microsoft visual studio 10.0\vc\include\exception
_TEXT	ENDS
;	COMDAT ??1bad_alloc@std@@UAE@XZ
_TEXT	SEGMENT
??1bad_alloc@std@@UAE@XZ PROC				; std::bad_alloc::~bad_alloc, COMDAT
; _this$ = ecx

; 354  : 		{	// destroy the object

	mov	DWORD PTR [ecx], OFFSET ??_7bad_alloc@std@@6B@

; 355  : 		}

	jmp	??1exception@std@@UAE@XZ		; std::exception::~exception
??1bad_alloc@std@@UAE@XZ ENDP				; std::bad_alloc::~bad_alloc
; Function compile flags: /Ogtp
_TEXT	ENDS
;	COMDAT ??0bad_alloc@std@@QAE@PBD@Z
_TEXT	SEGMENT
__Message$ = 8						; size = 4
??0bad_alloc@std@@QAE@PBD@Z PROC			; std::bad_alloc::bad_alloc, COMDAT
; _this$ = ecx

; 345  : 		{	// construct from message string

	push	ebp
	mov	ebp, esp
	push	esi
	lea	eax, DWORD PTR __Message$[ebp]
	push	eax
	mov	esi, ecx
	call	??0exception@std@@QAE@ABQBD@Z		; std::exception::exception
	mov	DWORD PTR [esi], OFFSET ??_7bad_alloc@std@@6B@

; 346  : 		}

	mov	eax, esi
	pop	esi
	pop	ebp
	ret	4
??0bad_alloc@std@@QAE@PBD@Z ENDP			; std::bad_alloc::bad_alloc
